
top_test.elf:     file format elf32-littleriscv


Disassembly of section .text:

00400000 <__Vectors>:
  400000:	0110                	addi	a2,sp,128
  400002:	0040                	addi	s0,sp,4
  400004:	0110                	addi	a2,sp,128
  400006:	0040                	addi	s0,sp,4
  400008:	0110                	addi	a2,sp,128
  40000a:	0040                	addi	s0,sp,4
  40000c:	0110                	addi	a2,sp,128
  40000e:	0040                	addi	s0,sp,4
  400010:	0110                	addi	a2,sp,128
  400012:	0040                	addi	s0,sp,4
  400014:	0110                	addi	a2,sp,128
  400016:	0040                	addi	s0,sp,4
  400018:	0110                	addi	a2,sp,128
  40001a:	0040                	addi	s0,sp,4
  40001c:	0110                	addi	a2,sp,128
  40001e:	0040                	addi	s0,sp,4
  400020:	0110                	addi	a2,sp,128
  400022:	0040                	addi	s0,sp,4
  400024:	0110                	addi	a2,sp,128
  400026:	0040                	addi	s0,sp,4
  400028:	0110                	addi	a2,sp,128
  40002a:	0040                	addi	s0,sp,4
  40002c:	0110                	addi	a2,sp,128
  40002e:	0040                	addi	s0,sp,4
  400030:	0110                	addi	a2,sp,128
  400032:	0040                	addi	s0,sp,4
  400034:	0110                	addi	a2,sp,128
  400036:	0040                	addi	s0,sp,4
  400038:	0110                	addi	a2,sp,128
  40003a:	0040                	addi	s0,sp,4
  40003c:	0110                	addi	a2,sp,128
  40003e:	0040                	addi	s0,sp,4
  400040:	0110                	addi	a2,sp,128
  400042:	0040                	addi	s0,sp,4
  400044:	0110                	addi	a2,sp,128
  400046:	0040                	addi	s0,sp,4
  400048:	0110                	addi	a2,sp,128
  40004a:	0040                	addi	s0,sp,4
  40004c:	0110                	addi	a2,sp,128
  40004e:	0040                	addi	s0,sp,4
  400050:	0110                	addi	a2,sp,128
  400052:	0040                	addi	s0,sp,4
  400054:	0110                	addi	a2,sp,128
  400056:	0040                	addi	s0,sp,4
  400058:	0110                	addi	a2,sp,128
  40005a:	0040                	addi	s0,sp,4
  40005c:	0110                	addi	a2,sp,128
  40005e:	0040                	addi	s0,sp,4
  400060:	0110                	addi	a2,sp,128
  400062:	0040                	addi	s0,sp,4
  400064:	0110                	addi	a2,sp,128
  400066:	0040                	addi	s0,sp,4
  400068:	0110                	addi	a2,sp,128
  40006a:	0040                	addi	s0,sp,4
  40006c:	0110                	addi	a2,sp,128
  40006e:	0040                	addi	s0,sp,4
  400070:	0110                	addi	a2,sp,128
  400072:	0040                	addi	s0,sp,4
  400074:	0110                	addi	a2,sp,128
  400076:	0040                	addi	s0,sp,4
  400078:	0110                	addi	a2,sp,128
  40007a:	0040                	addi	s0,sp,4
  40007c:	0110                	addi	a2,sp,128
  40007e:	0040                	addi	s0,sp,4
  400080:	0110                	addi	a2,sp,128
  400082:	0040                	addi	s0,sp,4
  400084:	0110                	addi	a2,sp,128
  400086:	0040                	addi	s0,sp,4
  400088:	0110                	addi	a2,sp,128
  40008a:	0040                	addi	s0,sp,4
  40008c:	0110                	addi	a2,sp,128
  40008e:	0040                	addi	s0,sp,4
  400090:	0110                	addi	a2,sp,128
  400092:	0040                	addi	s0,sp,4
  400094:	0110                	addi	a2,sp,128
  400096:	0040                	addi	s0,sp,4
  400098:	0110                	addi	a2,sp,128
  40009a:	0040                	addi	s0,sp,4
  40009c:	0110                	addi	a2,sp,128
  40009e:	0040                	addi	s0,sp,4
  4000a0:	0110                	addi	a2,sp,128
  4000a2:	0040                	addi	s0,sp,4
  4000a4:	0110                	addi	a2,sp,128
  4000a6:	0040                	addi	s0,sp,4
  4000a8:	0110                	addi	a2,sp,128
  4000aa:	0040                	addi	s0,sp,4
  4000ac:	0110                	addi	a2,sp,128
  4000ae:	0040                	addi	s0,sp,4
  4000b0:	0110                	addi	a2,sp,128
  4000b2:	0040                	addi	s0,sp,4
  4000b4:	0110                	addi	a2,sp,128
  4000b6:	0040                	addi	s0,sp,4
  4000b8:	0110                	addi	a2,sp,128
  4000ba:	0040                	addi	s0,sp,4
  4000bc:	0110                	addi	a2,sp,128
  4000be:	0040                	addi	s0,sp,4

004000c0 <main>:
  4000c0:	1f0007b7          	lui	a5,0x1f000
  4000c4:	4398                	lw	a4,0(a5)
  4000c6:	004006b7          	lui	a3,0x400
  4000ca:	12e6a023          	sw	a4,288(a3) # 400120 <__etext>
  4000ce:	0ce7a023          	sw	a4,192(a5) # 1f0000c0 <__end+0x1ebffe90>
  4000d2:	a001                	j	4000d2 <main+0x12>

004000d4 <Reset_Handler>:
  4000d4:	62f9                	lui	t0,0x1e
  4000d6:	3002a073          	csrs	mstatus,t0
  4000da:	004002b7          	lui	t0,0x400
  4000de:	7c02a073          	csrs	mxstatus,t0
  4000e2:	00000517          	auipc	a0,0x0
  4000e6:	02e50513          	addi	a0,a0,46 # 400110 <Default_Handler>
  4000ea:	00356513          	ori	a0,a0,3
  4000ee:	30551073          	csrw	mtvec,a0
  4000f2:	00000517          	auipc	a0,0x0
  4000f6:	f0e50513          	addi	a0,a0,-242 # 400000 <__Vectors>
  4000fa:	30751073          	csrw	mtvt,a0
  4000fe:	00000117          	auipc	sp,0x0
  400102:	13210113          	addi	sp,sp,306 # 400230 <__end>
  400106:	34011073          	csrw	mscratch,sp
  40010a:	fb7ff0ef          	jal	ra,4000c0 <main>

0040010e <__exit>:
  40010e:	a001                	j	40010e <__exit>

00400110 <Default_Handler>:
  400110:	a001                	j	400110 <Default_Handler>
	...

Disassembly of section .bss:

00400120 <reg_data>:
	...

00400130 <__e_ram_bss_1>:
	...

Disassembly of section .comment:

00000000 <.comment>:
   0:	3a434347          	fmsub.d	ft6,ft6,ft4,ft7,rmm
   4:	2820                	fld	fs0,80(s0)
   6:	2d54                	fld	fa3,152(a0)
   8:	4548                	lw	a0,12(a0)
   a:	4441                	li	s0,16
   c:	5220                	lw	s0,96(a2)
   e:	5349                	li	t1,-14
  10:	54205643          	fmadd.h	fa2,ft0,ft2,fa0,unknown
  14:	736c6f6f          	jal	t5,c674a <__Vectors-0x3398b6>
  18:	5620                	lw	s0,104(a2)
  1a:	2e31                	jal	336 <__Vectors-0x3ffcca>
  1c:	3031                	jal	fffff828 <__end+0xffbff5f8>
  1e:	302e                	fld	ft0,232(sp)
  20:	4220                	lw	s0,64(a2)
  22:	3032                	fld	ft0,296(sp)
  24:	3032                	fld	ft0,296(sp)
  26:	3830                	fld	fa2,112(s0)
  28:	3032                	fld	ft0,296(sp)
  2a:	2029                	jal	34 <__Vectors-0x3fffcc>
  2c:	2e38                	fld	fa4,88(a2)
  2e:	2e34                	fld	fa3,88(a2)
  30:	0030                	addi	a2,sp,8

Disassembly of section .riscv.attributes:

00000000 <.riscv.attributes>:
   0:	2841                	jal	90 <__Vectors-0x3fff70>
   2:	0000                	unimp
   4:	7200                	flw	fs0,32(a2)
   6:	7369                	lui	t1,0xffffa
   8:	01007663          	bgeu	zero,a6,14 <__Vectors-0x3fffec>
   c:	001e                	c.slli	zero,0x7
   e:	0000                	unimp
  10:	7205                	lui	tp,0xfffe1
  12:	3376                	fld	ft6,376(sp)
  14:	6532                	flw	fa0,12(sp)
  16:	7031                	c.lui	zero,0xfffec
  18:	5f39                	li	t5,-18
  1a:	30703263          	0x30703263
  1e:	785f 6874 6165      	0x61656874785f
  24:	3264                	fld	fs1,224(a2)
  26:	3070                	fld	fa2,224(s0)
	...

Disassembly of section .debug_aranges:

00000000 <.debug_aranges>:
   0:	001c                	0x1c
   2:	0000                	unimp
   4:	0002                	c.slli64	zero
   6:	0000                	unimp
   8:	0000                	unimp
   a:	0004                	0x4
   c:	0000                	unimp
   e:	0000                	unimp
  10:	00d4                	addi	a3,sp,68
  12:	0040                	addi	s0,sp,4
  14:	003e                	c.slli	zero,0xf
	...
  1e:	0000                	unimp
  20:	001c                	0x1c
  22:	0000                	unimp
  24:	0002                	c.slli64	zero
  26:	0026                	c.slli	zero,0x9
  28:	0000                	unimp
  2a:	0004                	0x4
  2c:	0000                	unimp
  2e:	0000                	unimp
  30:	00c0                	addi	s0,sp,68
  32:	0040                	addi	s0,sp,4
  34:	0014                	0x14
	...

Disassembly of section .debug_info:

00000000 <.debug_info>:
   0:	0022                	c.slli	zero,0x8
   2:	0000                	unimp
   4:	0002                	c.slli64	zero
   6:	0000                	unimp
   8:	0000                	unimp
   a:	0104                	addi	s1,sp,128
   c:	0000                	unimp
   e:	0000                	unimp
  10:	00d4                	addi	a3,sp,68
  12:	0040                	addi	s0,sp,4
  14:	0112                	slli	sp,sp,0x4
  16:	0040                	addi	s0,sp,4
  18:	0000                	unimp
  1a:	0000                	unimp
  1c:	00000007          	vlbu.v	v0,(zero),v0.t
  20:	002a                	c.slli	zero,0xa
  22:	0000                	unimp
  24:	8001                	c.srli64	s0
  26:	00000087          	vlbu.v	v1,(zero),v0.t
  2a:	0004                	0x4
  2c:	0014                	0x14
  2e:	0000                	unimp
  30:	0104                	addi	s1,sp,128
  32:	24f0                	fld	fa2,200(s1)
  34:	0000                	unimp
  36:	970c                	0x970c
  38:	07000017          	auipc	zero,0x7000
  3c:	0000                	unimp
  3e:	c000                	sw	s0,0(s0)
  40:	4000                	lw	s0,0(s0)
  42:	1400                	addi	s0,sp,544
  44:	0000                	unimp
  46:	8600                	0x8600
  48:	0000                	unimp
  4a:	0000                	unimp
  4c:	0000                	unimp
  4e:	0200                	addi	s0,sp,256
  50:	0801                	addi	a6,a6,0
  52:	082a                	slli	a6,a6,0xa
  54:	0000                	unimp
  56:	0202                	c.slli64	tp
  58:	0010b007          	fld	ft0,1(ra)
  5c:	0300                	addi	s0,sp,384
  5e:	1dd2                	slli	s11,s11,0x34
  60:	0000                	unimp
  62:	0602                	c.slli64	a2
  64:	00004817          	auipc	a6,0x4
  68:	0400                	addi	s0,sp,512
  6a:	00000037          	lui	zero,0x0
  6e:	0402                	c.slli64	s0
  70:	00187707          	0x187707
  74:	0300                	addi	s0,sp,384
  76:	000010c3          	fmadd.s	ft1,ft0,ft0,ft0,rtz
  7a:	0a02                	c.slli64	s4
  7c:	0000431b          	0x431b
  80:	0500                	addi	s0,sp,640
  82:	00001293          	slli	t0,zero,0x0
  86:	1501                	addi	a0,a0,-32
  88:	0000370b          	extu	a4,zero,0,0
  8c:	0500                	addi	s0,sp,640
  8e:	40012003          	lw	zero,1024(sp)
  92:	0600                	addi	s0,sp,768
  94:	00002683          	lw	a3,0(zero) # 0 <__Vectors-0x400000>
  98:	1601                	addi	a2,a2,-32
  9a:	8305                	srli	a4,a4,0x1
  9c:	0000                	unimp
  9e:	c000                	sw	s0,0(s0)
  a0:	4000                	lw	s0,0(s0)
  a2:	1400                	addi	s0,sp,544
  a4:	0000                	unimp
  a6:	0100                	addi	s0,sp,128
  a8:	079c                	addi	a5,sp,960
  aa:	0504                	addi	s1,sp,640
  ac:	6e69                	lui	t3,0x1a
  ae:	0074                	addi	a3,sp,12
	...

Disassembly of section .debug_abbrev:

00000000 <.debug_abbrev>:
   0:	1101                	addi	sp,sp,-32
   2:	1000                	addi	s0,sp,32
   4:	1106                	slli	sp,sp,0x21
   6:	1201                	addi	tp,tp,-32
   8:	0301                	addi	t1,t1,0
   a:	1b0e                	slli	s6,s6,0x23
   c:	250e                	fld	fa0,192(sp)
   e:	130e                	slli	t1,t1,0x23
  10:	0005                	c.nop	1
  12:	0000                	unimp
  14:	1101                	addi	sp,sp,-32
  16:	2501                	jal	616 <__Vectors-0x3ff9ea>
  18:	130e                	slli	t1,t1,0x23
  1a:	1b0e030b          	0x1b0e030b
  1e:	110e                	slli	sp,sp,0x23
  20:	1201                	addi	tp,tp,-32
  22:	1006                	c.slli	zero,0x21
  24:	17429917          	auipc	s2,0x17429
  28:	0000                	unimp
  2a:	2402                	fld	fs0,0(sp)
  2c:	0b00                	addi	s0,sp,400
  2e:	030b3e0b          	0x30b3e0b
  32:	000e                	c.slli	zero,0x3
  34:	0300                	addi	s0,sp,384
  36:	0016                	c.slli	zero,0x5
  38:	0b3a0e03          	lb	t3,179(s4)
  3c:	0b390b3b          	0xb390b3b
  40:	1349                	addi	t1,t1,-14
  42:	0000                	unimp
  44:	3504                	fld	fs1,40(a0)
  46:	4900                	lw	s0,16(a0)
  48:	05000013          	li	zero,80
  4c:	0034                	addi	a3,sp,8
  4e:	0b3a0e03          	lb	t3,179(s4)
  52:	0b390b3b          	0xb390b3b
  56:	1349                	addi	t1,t1,-14
  58:	1802193f 2e060000 	0x2e0600001802193f
  60:	3f00                	fld	fs0,56(a4)
  62:	0319                	addi	t1,t1,6
  64:	3a0e                	fld	fs4,224(sp)
  66:	390b3b0b          	extu	s6,s6,14,16
  6a:	1113490b          	lurb	s2,t1,a7,0
  6e:	1201                	addi	tp,tp,-32
  70:	4006                	0x4006
  72:	9718                	0x9718
  74:	1942                	slli	s2,s2,0x30
  76:	0000                	unimp
  78:	0b002407          	flw	fs0,176(zero) # b0 <__Vectors-0x3fff50>
  7c:	030b3e0b          	0x30b3e0b
  80:	0008                	0x8
	...

Disassembly of section .debug_line:

00000000 <.debug_line>:
   0:	0082                	c.slli64	ra
   2:	0000                	unimp
   4:	001d0003          	lb	zero,1(s10)
   8:	0000                	unimp
   a:	0101                	addi	sp,sp,0
   c:	000d0efb          	0xd0efb
  10:	0101                	addi	sp,sp,0
  12:	0101                	addi	sp,sp,0
  14:	0000                	unimp
  16:	0100                	addi	s0,sp,128
  18:	0000                	unimp
  1a:	0001                	nop
  1c:	30747263          	bgeu	s0,t2,320 <__Vectors-0x3ffce0>
  20:	532e                	lw	t1,232(sp)
  22:	0000                	unimp
  24:	0000                	unimp
  26:	0000                	unimp
  28:	0205                	addi	tp,tp,1
  2a:	00d4                	addi	a3,sp,68
  2c:	0040                	addi	s0,sp,4
  2e:	0100df03          	lhu	t5,16(ra)
  32:	02090103          	lb	sp,32(s2) # 17429044 <__end+0x17028e14>
  36:	0100                	addi	s0,sp,128
  38:	04090303          	lb	t1,64(s2)
  3c:	0100                	addi	s0,sp,128
  3e:	04090103          	lb	sp,64(s2)
  42:	0100                	addi	s0,sp,128
  44:	04090203          	lb	tp,64(s2)
  48:	0100                	addi	s0,sp,128
  4a:	08090103          	lb	sp,128(s2)
  4e:	0100                	addi	s0,sp,128
  50:	04090103          	lb	sp,64(s2)
  54:	0100                	addi	s0,sp,128
  56:	04090203          	lb	tp,64(s2)
  5a:	0100                	addi	s0,sp,128
  5c:	08090103          	lb	sp,128(s2)
  60:	0100                	addi	s0,sp,128
  62:	04090203          	lb	tp,64(s2)
  66:	0100                	addi	s0,sp,128
  68:	08090103          	lb	sp,128(s2)
  6c:	0100                	addi	s0,sp,128
  6e:	04090203          	lb	tp,64(s2)
  72:	0100                	addi	s0,sp,128
  74:	04090503          	lb	a0,64(s2)
  78:	0100                	addi	s0,sp,128
  7a:	02090503          	lb	a0,32(s2)
  7e:	0100                	addi	s0,sp,128
  80:	0209                	addi	tp,tp,2
  82:	0000                	unimp
  84:	0101                	addi	sp,sp,0
  86:	00a1                	addi	ra,ra,8
  88:	0000                	unimp
  8a:	00350003          	lb	zero,3(a0)
  8e:	0000                	unimp
  90:	0101                	addi	sp,sp,0
  92:	000d0efb          	0xd0efb
  96:	0101                	addi	sp,sp,0
  98:	0101                	addi	sp,sp,0
  9a:	0000                	unimp
  9c:	0100                	addi	s0,sp,128
  9e:	0000                	unimp
  a0:	0001                	nop
  a2:	616d                	addi	sp,sp,240
  a4:	6e69                	lui	t3,0x1a
  a6:	632e                	flw	ft6,200(sp)
  a8:	0000                	unimp
  aa:	0000                	unimp
  ac:	7974                	flw	fa3,116(a0)
  ae:	6470                	flw	fa2,76(s0)
  b0:	6665                	lui	a2,0x19
  b2:	682e                	flw	fa6,200(sp)
  b4:	0000                	unimp
  b6:	0000                	unimp
  b8:	6278                	flw	fa4,68(a2)
  ba:	3872                	fld	fa6,312(sp)
  bc:	3032                	fld	ft0,296(sp)
  be:	682e                	flw	fa6,200(sp)
  c0:	0000                	unimp
  c2:	0000                	unimp
  c4:	0500                	addi	s0,sp,640
  c6:	0001                	nop
  c8:	0205                	addi	tp,tp,1
  ca:	00c0                	addi	s0,sp,68
  cc:	0040                	addi	s0,sp,4
  ce:	05011603          	lh	a2,80(sp)
  d2:	0302                	c.slli64	t1
  d4:	0901                	addi	s2,s2,0
  d6:	0000                	unimp
  d8:	0501                	addi	a0,a0,0
  da:	060d                	addi	a2,a2,3
  dc:	00090003          	lb	zero,0(s2)
  e0:	0100                	addi	s0,sp,128
  e2:	0b05                	addi	s6,s6,1
  e4:	06090003          	lb	zero,96(s2)
  e8:	0100                	addi	s0,sp,128
  ea:	0205                	addi	tp,tp,1
  ec:	0306                	slli	t1,t1,0x1
  ee:	0901                	addi	s2,s2,0
  f0:	0008                	0x8
  f2:	0301                	addi	t1,t1,0
  f4:	0900                	addi	s0,sp,144
  f6:	0000                	unimp
  f8:	0001                	nop
  fa:	0402                	c.slli64	s0
  fc:	0301                	addi	t1,t1,0
  fe:	0900                	addi	s0,sp,144
 100:	0004                	0x4
 102:	0001                	nop
 104:	0402                	c.slli64	s0
 106:	0301                	addi	t1,t1,0
 108:	0901                	addi	s2,s2,0
 10a:	0000                	unimp
 10c:	0501                	addi	a0,a0,0
 10e:	000a                	c.slli	zero,0x2
 110:	0402                	c.slli64	s0
 112:	0301                	addi	t1,t1,0
 114:	0900                	addi	s0,sp,144
 116:	0000                	unimp
 118:	0501                	addi	a0,a0,0
 11a:	04020007          	0x4020007
 11e:	0301                	addi	t1,t1,0
 120:	0900                	addi	s0,sp,144
 122:	0000                	unimp
 124:	0901                	addi	s2,s2,0
 126:	0002                	c.slli64	zero
 128:	0100                	addi	s0,sp,128
 12a:	01              	Address 0x000000000000012a is out of bounds.


Disassembly of section .debug_frame:

00000000 <.debug_frame>:
   0:	000c                	0xc
   2:	0000                	unimp
   4:	ffffffff          	0xffffffff
   8:	0001                	nop
   a:	7c01                	lui	s8,0xfffe0
   c:	0d01                	addi	s10,s10,0
   e:	0002                	c.slli64	zero
  10:	000c                	0xc
  12:	0000                	unimp
  14:	0000                	unimp
  16:	0000                	unimp
  18:	00c0                	addi	s0,sp,68
  1a:	0040                	addi	s0,sp,4
  1c:	0014                	0x14
	...

Disassembly of section .debug_str:

00000000 <.debug_str>:
       0:	30747263          	bgeu	s0,t2,304 <__Vectors-0x3ffcfc>
       4:	532e                	lw	t1,232(sp)
       6:	4400                	lw	s0,8(s0)
       8:	5c3a                	lw	s8,172(sp)
       a:	63636363          	bltu	t1,s6,630 <__Vectors-0x3ff9d0>
       e:	3032                	fld	ft0,296(sp)
      10:	3032                	fld	ft0,296(sp)
      12:	435c                	lw	a5,4(a4)
      14:	5c45444f          	fnmadd.h	fs0,fa0,ft4,fa1,rmm
      18:	3965                	jal	fffffcd0 <__end+0xffbffaa0>
      1a:	3230                	fld	fa2,96(a2)
      1c:	735c                	flw	fa5,36(a4)
      1e:	6372                	flw	ft6,28(sp)
      20:	745c                	flw	fa5,44(s0)
      22:	745f706f          	j	f7f66 <__Vectors-0x30809a>
      26:	7365                	lui	t1,0xffff9
      28:	0074                	addi	a3,sp,12
      2a:	20554e47          	fmsub.s	ft8,fa0,ft5,ft4,rmm
      2e:	5341                	li	t1,-16
      30:	3220                	fld	fs0,96(a2)
      32:	332e                	fld	ft6,232(sp)
      34:	0032                	c.slli	zero,0xc
      36:	5f5f 4955 544e      	0x544e49555f5f
      3c:	465f 5341 3854      	0x38545341465f
      42:	4d5f 5841 5f5f      	0x5f5f58414d5f
      48:	3020                	fld	fs0,96(s0)
      4a:	6678                	flw	fa4,76(a2)
      4c:	6666                	flw	fa2,88(sp)
      4e:	6666                	flw	fa2,88(sp)
      50:	6666                	flw	fa2,88(sp)
      52:	5566                	lw	a0,120(sp)
      54:	5f00                	lw	s0,56(a4)
      56:	465f 544c 3436      	0x3436544c465f
      5c:	485f 5341 445f      	0x445f5341485f
      62:	4e45                	li	t3,17
      64:	5f4d524f          	fnmadd.q	ft4,fs10,fs4,fa1,unknown
      68:	205f 0031 5f5f      	0x5f5f0031205f
      6e:	4e49                	li	t3,18
      70:	5f54                	lw	a3,60(a4)
      72:	4146                	lw	sp,80(sp)
      74:	32335453          	0x32335453
      78:	575f 4449 4854      	0x48544449575f
      7e:	5f5f 3320 0032      	0x3233205f5f
      84:	5f5f 4c46 3354      	0x33544c465f5f
      8a:	5f32                	lw	t5,44(sp)
      8c:	4944                	lw	s1,20(a0)
      8e:	205f5f47          	fmsub.s	ft10,ft10,ft5,ft4,unknown
      92:	0036                	c.slli	zero,0xd
      94:	5f5f 4953 455a      	0x455a49535f5f
      9a:	535f464f          	fnmadd.d	fa2,ft10,fs5,fa0,rmm
      9e:	5a49                	li	s4,-14
      a0:	5f45                	li	t5,-15
      a2:	5f54                	lw	a3,60(a4)
      a4:	205f 0034 5f5f      	0x5f5f0034205f
      aa:	4e49                	li	t3,18
      ac:	3654                	fld	fa3,168(a2)
      ae:	5f34                	lw	a3,120(a4)
      b0:	5954                	lw	a3,52(a0)
      b2:	4550                	lw	a2,12(a0)
      b4:	5f5f 6c20 6e6f      	0x6e6f6c205f5f
      ba:	6f6c2067          	0x6f6c2067
      be:	676e                	flw	fa4,216(sp)
      c0:	6920                	flw	fs0,80(a0)
      c2:	746e                	flw	fs0,248(sp)
      c4:	5f00                	lw	s0,56(a4)
      c6:	465f 544c 3231      	0x3231544c465f
      cc:	5f38                	lw	a4,120(a4)
      ce:	5045                	c.li	zero,-15
      d0:	4f4c4953          	0x4f4c4953
      d4:	5f4e                	lw	t5,240(sp)
      d6:	205f 2e31 3239      	0x32392e31205f
      dc:	3935                	jal	fffffd18 <__end+0xffbffae8>
      de:	3932                	fld	fs2,296(sp)
      e0:	3439                	jal	fffffaee <__end+0xffbff8be>
      e2:	3334                	fld	fa3,96(a4)
      e4:	3738                	fld	fa4,104(a4)
      e6:	3332                	fld	ft6,296(sp)
      e8:	3835                	jal	fffff924 <__end+0xffbff6f4>
      ea:	3335                	jal	fffffe16 <__end+0xffbffbe6>
      ec:	3530                	fld	fa2,104(a0)
      ee:	3935                	jal	fffffd2a <__end+0xffbffafa>
      f0:	34393737          	lui	a4,0x34393
      f4:	3532                	fld	fa0,296(sp)
      f6:	3438                	fld	fa4,104(s0)
      f8:	3239                	jal	fffffa06 <__end+0xffbff7d6>
      fa:	65323337          	lui	t1,0x65323
      fe:	332d                	jal	fffffe28 <__end+0xffbffbf8>
     100:	4634                	lw	a3,72(a2)
     102:	3231                	jal	fffffa0e <__end+0xffbff7de>
     104:	0038                	addi	a4,sp,8
     106:	5f5f 4c46 5f54      	0x5f544c465f5f
     10c:	5045                	c.li	zero,-15
     10e:	4f4c4953          	0x4f4c4953
     112:	5f4e                	lw	t5,240(sp)
     114:	205f 2e31 3931      	0x39312e31205f
     11a:	3032                	fld	ft0,296(sp)
     11c:	3239                	jal	fffffa2a <__end+0xffbff7fa>
     11e:	3938                	fld	fa4,112(a0)
     120:	3535                	jal	ffffff4c <__end+0xffbffd1c>
     122:	3730                	fld	fa2,104(a4)
     124:	3138                	fld	fa4,96(a0)
     126:	3532                	fld	fa0,296(sp)
     128:	3030                	fld	fa2,96(s0)
     12a:	3030                	fld	fa2,96(s0)
     12c:	3030                	fld	fa2,96(s0)
     12e:	3030                	fld	fa2,96(s0)
     130:	3030                	fld	fa2,96(s0)
     132:	3030                	fld	fa2,96(s0)
     134:	3030                	fld	fa2,96(s0)
     136:	3030                	fld	fa2,96(s0)
     138:	3030                	fld	fa2,96(s0)
     13a:	6530                	flw	fa2,72(a0)
     13c:	372d                	jal	66 <__Vectors-0x3fff9a>
     13e:	0046                	c.slli	zero,0x11
     140:	5f5f 4e49 3654      	0x36544e495f5f
     146:	5f34                	lw	a3,120(a4)
     148:	29632843          	fmadd.s	fa6,ft6,fs6,ft5,rdn
     14c:	6320                	flw	fs0,64(a4)
     14e:	2320                	fld	fs0,64(a4)
     150:	4c4c2023          	sw	tp,1216(s8) # fffe04c0 <__end+0xffbe0290>
     154:	5f00                	lw	s0,56(a4)
     156:	535f 5a49 4f45      	0x4f455a49535f
     15c:	5f46                	lw	t5,112(sp)
     15e:	4f50                	lw	a2,28(a4)
     160:	4e49                	li	t3,18
     162:	4554                	lw	a3,12(a0)
     164:	5f52                	lw	t5,52(sp)
     166:	205f 0034 5f5f      	0x5f5f0034205f
     16c:	4955                	li	s2,21
     16e:	544e                	lw	s0,240(sp)
     170:	4c5f 4145 5453      	0x545341454c5f
     176:	545f3233          	0x545f3233
     17a:	5059                	c.li	zero,-10
     17c:	5f45                	li	t5,-15
     17e:	205f 6f6c 676e      	0x676e6f6c205f
     184:	7520                	flw	fs0,104(a0)
     186:	736e                	flw	ft6,248(sp)
     188:	6769                	lui	a4,0x1a
     18a:	656e                	flw	fa0,216(sp)
     18c:	2064                	fld	fs1,192(s0)
     18e:	6e69                	lui	t3,0x1a
     190:	0074                	addi	a3,sp,12
     192:	5f5f 4357 4148      	0x414843575f5f
     198:	5f52                	lw	t5,52(sp)
     19a:	54444957          	0x54444957
     19e:	5f48                	lw	a0,60(a4)
     1a0:	205f 3233 5f00      	0x5f003233205f
     1a6:	445f 4345 3231      	0x32314345445f
     1ac:	5f38                	lw	a4,120(a4)
     1ae:	494d                	li	s2,19
     1b0:	5f4e                	lw	t5,240(sp)
     1b2:	5845                	li	a6,-15
     1b4:	5f50                	lw	a2,60(a4)
     1b6:	205f 2d28 3136      	0x31362d28205f
     1bc:	3234                	fld	fa3,96(a2)
     1be:	0029                	c.nop	10
     1c0:	5f5f 4544 3643      	0x364345445f5f
     1c6:	5f34                	lw	a3,120(a4)
     1c8:	414d                	li	sp,19
     1ca:	544e                	lw	s0,240(sp)
     1cc:	445f 4749 5f5f      	0x5f5f4749445f
     1d2:	3120                	fld	fs0,96(a0)
     1d4:	0036                	c.slli	zero,0xd
     1d6:	5f5f 4c46 5f54      	0x5f544c465f5f
     1dc:	4152                	lw	sp,20(sp)
     1de:	4944                	lw	s1,20(a0)
     1e0:	5f58                	lw	a4,60(a4)
     1e2:	205f 0032 5f5f      	0x5f5f0032205f
     1e8:	4955                	li	s2,21
     1ea:	544e                	lw	s0,240(sp)
     1ec:	414d                	li	sp,19
     1ee:	5f58                	lw	a4,60(a4)
     1f0:	29632843          	fmadd.s	fa6,ft6,fs6,ft5,rdn
     1f4:	6320                	flw	fs0,64(a4)
     1f6:	2320                	fld	fs0,64(a4)
     1f8:	4c552023          	sw	t0,1216(a0)
     1fc:	004c                	addi	a1,sp,4
     1fe:	5f5f 4e49 5f54      	0x5f544e495f5f
     204:	4146                	lw	sp,80(sp)
     206:	5f385453          	0x5f385453
     20a:	414d                	li	sp,19
     20c:	5f58                	lw	a4,60(a4)
     20e:	205f 7830 6637      	0x66377830205f
     214:	6666                	flw	fa2,88(sp)
     216:	6666                	flw	fa2,88(sp)
     218:	6666                	flw	fa2,88(sp)
     21a:	5f00                	lw	s0,56(a4)
     21c:	685f 7361 695f      	0x695f7361685f
     222:	636e                	flw	ft6,216(sp)
     224:	756c                	flw	fa1,108(a0)
     226:	6564                	flw	fs1,76(a0)
     228:	6e5f 7865 2874      	0x287478656e5f
     22e:	29525453          	0x29525453
     232:	5f20                	lw	s0,120(a4)
     234:	685f 7361 695f      	0x695f7361685f
     23a:	636e                	flw	ft6,216(sp)
     23c:	756c                	flw	fa1,108(a0)
     23e:	6564                	flw	fs1,76(a0)
     240:	6e5f 7865 5f74      	0x5f7478656e5f
     246:	285f 5453 2952      	0x29525453285f
     24c:	5f00                	lw	s0,56(a4)
     24e:	555f 4e49 3654      	0x36544e49555f
     254:	5f34                	lw	a3,120(a4)
     256:	5954                	lw	a3,52(a0)
     258:	4550                	lw	a2,12(a0)
     25a:	5f5f 6c20 6e6f      	0x6e6f6c205f5f
     260:	6f6c2067          	0x6f6c2067
     264:	676e                	flw	fa4,216(sp)
     266:	7520                	flw	fs0,104(a0)
     268:	736e                	flw	ft6,248(sp)
     26a:	6769                	lui	a4,0x1a
     26c:	656e                	flw	fa0,216(sp)
     26e:	2064                	fld	fs1,192(s0)
     270:	6e69                	lui	t3,0x1a
     272:	0074                	addi	a3,sp,12
     274:	5f5f 4c46 3354      	0x33544c465f5f
     27a:	5832                	lw	a6,44(sp)
     27c:	4d5f 5841 455f      	0x455f58414d5f
     282:	5058                	lw	a4,36(s0)
     284:	5f5f 3120 3230      	0x323031205f5f
     28a:	0034                	addi	a3,sp,8
     28c:	5f5f 444c 4c42      	0x4c42444c5f5f
     292:	4d5f 5841 315f      	0x315f58414d5f
     298:	5f30                	lw	a2,120(a4)
     29a:	5845                	li	a6,-15
     29c:	5f50                	lw	a2,60(a4)
     29e:	205f 3934 3233      	0x32333934205f
     2a4:	5f00                	lw	s0,56(a4)
     2a6:	445f 4345 3233      	0x32334345445f
     2ac:	4d5f 4e49 5f5f      	0x5f5f4e494d5f
     2b2:	3120                	fld	fs0,96(a0)
     2b4:	2d45                	jal	964 <__Vectors-0x3ff69c>
     2b6:	3539                	jal	c4 <__Vectors-0x3fff3c>
     2b8:	4644                	lw	s1,12(a2)
     2ba:	5f00                	lw	s0,56(a4)
     2bc:	475f 4343 415f      	0x415f4343475f
     2c2:	4f54                	lw	a3,28(a4)
     2c4:	494d                	li	s2,19
     2c6:	48435f43          	fmadd.s	ft10,ft6,ft4,fs1,unknown
     2ca:	5241                	li	tp,-16
     2cc:	545f3233          	0x545f3233
     2d0:	4c5f 434f 5f4b      	0x5f4b434f4c5f
     2d6:	5246                	lw	tp,112(sp)
     2d8:	4545                	li	a0,17
     2da:	3120                	fld	fs0,96(a0)
     2dc:	5f00                	lw	s0,56(a4)
     2de:	415f 4f54 494d      	0x494d4f54415f
     2e4:	45535f43          	fmadd.h	ft10,ft6,fs5,fs0,unknown
     2e8:	5f51                	li	t5,-12
     2ea:	20545343          	fmadd.s	ft6,fs0,ft5,ft4,unknown
     2ee:	0035                	c.nop	13
     2f0:	5f5f 4c46 3654      	0x36544c465f5f
     2f6:	5f34                	lw	a3,120(a4)
     2f8:	414d                	li	sp,19
     2fa:	5f58                	lw	a4,60(a4)
     2fc:	205f 2e31 3937      	0x39372e31205f
     302:	33393637          	lui	a2,0x33393
     306:	3331                	jal	12 <__Vectors-0x3fffee>
     308:	3834                	fld	fa3,112(s0)
     30a:	3236                	fld	ft4,360(sp)
     30c:	37353133          	0x37353133
     310:	3830                	fld	fa2,112(s0)
     312:	3431                	jal	fffffd1e <__end+0xffbffaee>
     314:	3235                	jal	fffffc40 <__end+0xffbffa10>
     316:	33323437          	lui	s0,0x33323
     31a:	37313337          	lui	t1,0x37313
     31e:	3430                	fld	fa2,104(s0)
     320:	65373533          	0x65373533
     324:	3830332b          	0x3830332b
     328:	3646                	fld	fa2,112(sp)
     32a:	0034                	addi	a3,sp,8
     32c:	5f5f 4953 455a      	0x455a49535f5f
     332:	575f464f          	fnmadd.q	fa2,ft10,fs5,fa0,rmm
     336:	4e49                	li	t3,18
     338:	5f54                	lw	a3,60(a4)
     33a:	5f54                	lw	a3,60(a4)
     33c:	205f 0034 5f5f      	0x5f5f0034205f
     342:	4244                	lw	s1,4(a2)
     344:	5f4c                	lw	a1,60(a4)
     346:	414d                	li	sp,19
     348:	5f58                	lw	a4,60(a4)
     34a:	3031                	jal	fffffb56 <__end+0xffbff926>
     34c:	455f 5058 5f5f      	0x5f5f5058455f
     352:	3320                	fld	fs0,96(a4)
     354:	3830                	fld	fa2,112(s0)
     356:	5f00                	lw	s0,56(a4)
     358:	465f 544c 3436      	0x3436544c465f
     35e:	4d5f 4e49 5f5f      	0x5f5f4e494d5f
     364:	3220                	fld	fs0,96(a2)
     366:	322e                	fld	ft4,232(sp)
     368:	3532                	fld	fa0,296(sp)
     36a:	3730                	fld	fa2,104(a4)
     36c:	38353833          	0x38353833
     370:	3035                	jal	fffffb9c <__end+0xffbff96c>
     372:	31303237          	lui	tp,0x31303
     376:	30333833          	0x30333833
     37a:	3039                	jal	fffffb88 <__end+0xffbff958>
     37c:	3332                	fld	ft6,296(sp)
     37e:	3732                	fld	fa4,296(sp)
     380:	3731                	jal	28c <__Vectors-0x3ffd74>
     382:	34323333          	0x34323333
     386:	3430                	fld	fa2,104(s0)
     388:	3630                	fld	fa2,104(a2)
     38a:	2d65                	jal	a42 <__Vectors-0x3ff5be>
     38c:	46383033          	0x46383033
     390:	3436                	fld	fs0,360(sp)
     392:	5f00                	lw	s0,56(a4)
     394:	4c5f 4244 5f4c      	0x5f4c42444c5f
     39a:	494d                	li	s2,19
     39c:	5f4e                	lw	t5,240(sp)
     39e:	205f 2e33 3633      	0x36332e33205f
     3a4:	3132                	fld	ft2,296(sp)
     3a6:	3330                	fld	fa2,96(a4)
     3a8:	3431                	jal	fffffdb4 <__end+0xffbffb84>
     3aa:	32313133          	0x32313133
     3ae:	3930                	fld	fa2,112(a0)
     3b0:	36303533          	0x36303533
     3b4:	3632                	fld	fa2,296(sp)
     3b6:	3632                	fld	fa2,296(sp)
     3b8:	31383737          	lui	a4,0x31383
     3bc:	31323337          	lui	t1,0x31323
     3c0:	36323537          	lui	a0,0x36323
     3c4:	6530                	flw	fa2,72(a0)
     3c6:	342d                	jal	fffffdf0 <__end+0xffbffbc0>
     3c8:	3339                	jal	d6 <__Vectors-0x3fff2a>
     3ca:	4c32                	lw	s8,12(sp)
     3cc:	5f00                	lw	s0,56(a4)
     3ce:	495f 544e 4c5f      	0x4c5f544e495f
     3d4:	4145                	li	sp,17
     3d6:	32335453          	0x32335453
     3da:	575f 4449 4854      	0x48544449575f
     3e0:	5f5f 3320 0032      	0x3233205f5f
     3e6:	5f5f 4843 5241      	0x524148435f5f
     3ec:	545f3233          	0x545f3233
     3f0:	5059                	c.li	zero,-10
     3f2:	5f45                	li	t5,-15
     3f4:	205f 6f6c 676e      	0x676e6f6c205f
     3fa:	7520                	flw	fs0,104(a0)
     3fc:	736e                	flw	ft6,248(sp)
     3fe:	6769                	lui	a4,0x1a
     400:	656e                	flw	fa0,216(sp)
     402:	2064                	fld	fs1,192(s0)
     404:	6e69                	lui	t3,0x1a
     406:	0074                	addi	a3,sp,12
     408:	5f5f 4c46 3654      	0x36544c465f5f
     40e:	5834                	lw	a3,112(s0)
     410:	4d5f 4e49 5f5f      	0x5f5f4e494d5f
     416:	3320                	fld	fs0,96(a4)
     418:	332e                	fld	ft6,232(sp)
     41a:	3236                	fld	ft4,360(sp)
     41c:	3031                	jal	fffffc28 <__end+0xffbff9f8>
     41e:	33343133          	0x33343133
     422:	3131                	jal	2e <__Vectors-0x3fffd2>
     424:	3032                	fld	ft0,296(sp)
     426:	3339                	jal	134 <__Vectors-0x3ffecc>
     428:	3035                	jal	fffffc54 <__end+0xffbffa24>
     42a:	3236                	fld	ft4,360(sp)
     42c:	3236                	fld	ft4,360(sp)
     42e:	3736                	fld	fa4,360(sp)
     430:	37313837          	lui	a6,0x37313
     434:	37313233          	0x37313233
     438:	3235                	jal	fffffd64 <__end+0xffbffb34>
     43a:	3036                	fld	ft0,360(sp)
     43c:	2d65                	jal	af4 <__Vectors-0x3ff50c>
     43e:	3934                	fld	fa3,112(a0)
     440:	36463233          	0x36463233
     444:	7834                	flw	fa3,112(s0)
     446:	5f00                	lw	s0,56(a4)
     448:	4c5f 4244 5f4c      	0x5f4c42444c5f
     44e:	414d                	li	sp,19
     450:	544e                	lw	s0,240(sp)
     452:	445f 4749 5f5f      	0x5f5f4749445f
     458:	3120                	fld	fs0,96(a0)
     45a:	3331                	jal	166 <__Vectors-0x3ffe9a>
     45c:	5f00                	lw	s0,56(a4)
     45e:	4c5f 4244 5f4c      	0x5f4c42444c5f
     464:	4944                	lw	s1,20(a0)
     466:	205f5f47          	fmsub.s	ft10,ft10,ft5,ft4,unknown
     46a:	5f003333          	0x5f003333
     46e:	435f 4148 5f52      	0x5f524148435f
     474:	4942                	lw	s2,16(sp)
     476:	5f54                	lw	a3,60(a4)
     478:	205f 0038 5f5f      	0x5f5f0038205f
     47e:	4244                	lw	s1,4(a2)
     480:	5f4c                	lw	a1,60(a4)
     482:	4148                	lw	a0,4(a0)
     484:	4e495f53          	0x4e495f53
     488:	4946                	lw	s2,80(sp)
     48a:	494e                	lw	s2,208(sp)
     48c:	5954                	lw	a3,52(a0)
     48e:	5f5f 3120 5f00      	0x5f0031205f5f
     494:	535f 4454 5f43      	0x5f434454535f
     49a:	4556                	lw	a0,84(sp)
     49c:	5352                	lw	t1,52(sp)
     49e:	4f49                	li	t5,18
     4a0:	5f4e                	lw	t5,240(sp)
     4a2:	205f 3032 3731      	0x37313032205f
     4a8:	3031                	jal	fffffcb4 <__end+0xffbffa84>
     4aa:	004c                	addi	a1,sp,4
     4ac:	5f5f 4c46 3354      	0x33544c465f5f
     4b2:	5832                	lw	a6,44(sp)
     4b4:	4d5f 4e49 315f      	0x315f4e494d5f
     4ba:	5f30                	lw	a2,120(a4)
     4bc:	5845                	li	a6,-15
     4be:	5f50                	lw	a2,60(a4)
     4c0:	205f 2d28 3033      	0x30332d28205f
     4c6:	72002937          	lui	s2,0x72002
     4ca:	6765                	lui	a4,0x19
     4cc:	5f38                	lw	a4,120(a4)
     4ce:	74697277          	0x74697277
     4d2:	2865                	jal	58a <__Vectors-0x3ffa76>
     4d4:	2c72                	fld	fs8,280(sp)
     4d6:	2976                	fld	fs2,344(sp)
     4d8:	6420                	flw	fs0,72(s0)
     4da:	207b206f          	j	b2ee0 <__Vectors-0x34d120>
     4de:	282a                	fld	fa6,136(sp)
     4e0:	6572                	flw	fa0,28(sp)
     4e2:	745f3867          	0x745f3867
     4e6:	2a20                	fld	fs0,80(a2)
     4e8:	2829                	jal	502 <__Vectors-0x3ffafe>
     4ea:	2972                	fld	fs2,280(sp)
     4ec:	3d20                	fld	fs0,120(a0)
     4ee:	2820                	fld	fs0,80(s0)
     4f0:	6975                	lui	s2,0x1d
     4f2:	746e                	flw	fs0,248(sp)
     4f4:	5f38                	lw	a4,120(a4)
     4f6:	2974                	fld	fa3,208(a0)
     4f8:	7628                	flw	fa0,104(a2)
     4fa:	3b29                	jal	214 <__Vectors-0x3ffdec>
     4fc:	7d20                	flw	fs0,120(a0)
     4fe:	7720                	flw	fs0,104(a4)
     500:	6968                	flw	fa0,84(a0)
     502:	656c                	flw	fa1,76(a0)
     504:	3028                	fld	fa0,96(s0)
     506:	0029                	c.nop	10
     508:	5f5f 4c46 3354      	0x33544c465f5f
     50e:	5832                	lw	a6,44(sp)
     510:	455f 5350 4c49      	0x4c495350455f
     516:	5f5f4e4f          	fnmadd.q	ft8,ft10,fs5,fa1,rmm
     51a:	3220                	fld	fs0,96(a2)
     51c:	322e                	fld	ft4,232(sp)
     51e:	3032                	fld	ft0,296(sp)
     520:	3434                	fld	fa3,104(s0)
     522:	3036                	fld	ft0,360(sp)
     524:	3934                	fld	fa3,112(a0)
     526:	3532                	fld	fa0,296(sp)
     528:	3330                	fld	fa2,96(a4)
     52a:	3331                	jal	236 <__Vectors-0x3ffdca>
     52c:	3830                	fld	fa2,112(s0)
     52e:	3830                	fld	fa2,112(s0)
     530:	3734                	fld	fa3,104(a4)
     532:	3632                	fld	fa2,296(sp)
     534:	36333333          	0x36333333
     538:	3831                	jal	fffffd54 <__end+0xffbffb24>
     53a:	3631                	jal	46 <__Vectors-0x3fffba>
     53c:	3034                	fld	fa3,96(s0)
     53e:	3236                	fld	ft4,360(sp)
     540:	2d65                	jal	bf8 <__Vectors-0x3ff408>
     542:	3631                	jal	4e <__Vectors-0x3fffb2>
     544:	3346                	fld	ft6,112(sp)
     546:	7832                	flw	fa6,44(sp)
     548:	5f00                	lw	s0,56(a4)
     54a:	465f 544c 3436      	0x3436544c465f
     550:	5f58                	lw	a4,60(a4)
     552:	4148                	lw	a0,4(a0)
     554:	45445f53          	0x45445f53
     558:	4f4e                	lw	t5,208(sp)
     55a:	4d52                	lw	s10,20(sp)
     55c:	5f5f 3120 5f00      	0x5f0031205f5f
     562:	535f 4454 5f43      	0x5f434454535f
     568:	4f48                	lw	a0,28(a4)
     56a:	44455453          	0x44455453
     56e:	5f5f 3120 5f00      	0x5f0031205f5f
     574:	465f 544c 455f      	0x455f544c465f
     57a:	4156                	lw	sp,84(sp)
     57c:	5f4c                	lw	a1,60(a4)
     57e:	454d                	li	a0,19
     580:	4854                	lw	a3,20(s0)
     582:	545f444f          	fnmadd.h	fs0,ft10,ft5,fa0,rmm
     586:	38315f53          	0x38315f53
     58a:	3636                	fld	fa2,360(sp)
     58c:	5f31                	li	t5,-20
     58e:	205f5f33          	0x205f5f33
     592:	0030                	addi	a2,sp,8
     594:	5f5f 4c46 3654      	0x36544c465f5f
     59a:	5f34                	lw	a3,120(a4)
     59c:	5045                	c.li	zero,-15
     59e:	4f4c4953          	0x4f4c4953
     5a2:	5f4e                	lw	t5,240(sp)
     5a4:	205f 2e32 3232      	0x32322e32205f
     5aa:	3430                	fld	fa2,104(s0)
     5ac:	3634                	fld	fa3,104(a2)
     5ae:	3430                	fld	fa2,104(s0)
     5b0:	3239                	jal	fffffebe <__end+0xffbffc8e>
     5b2:	3035                	jal	fffffdde <__end+0xffbffbae>
     5b4:	30333133          	0x30333133
     5b8:	3038                	fld	fa4,96(s0)
     5ba:	3438                	fld	fa4,104(s0)
     5bc:	33363237          	lui	tp,0x33363
     5c0:	31363333          	0x31363333
     5c4:	3138                	fld	fa4,96(a0)
     5c6:	3436                	fld	fs0,360(sp)
     5c8:	3630                	fld	fa2,104(a2)
     5ca:	6532                	flw	fa0,12(sp)
     5cc:	312d                	jal	1f6 <__Vectors-0x3ffe0a>
     5ce:	4636                	lw	a2,76(sp)
     5d0:	3436                	fld	fs0,360(sp)
     5d2:	5f00                	lw	s0,56(a4)
     5d4:	725f 7369 7663      	0x76637369725f
     5da:	635f 6f6d 6564      	0x65646f6d635f
     5e0:	5f6c                	lw	a1,124(a4)
     5e2:	656d                	lui	a0,0x1b
     5e4:	6c64                	flw	fs1,92(s0)
     5e6:	3120776f          	jal	a4,78f8 <__Vectors-0x3f8708>
     5ea:	5f00                	lw	s0,56(a4)
     5ec:	445f 4c42 455f      	0x455f4c42445f
     5f2:	5350                	lw	a2,36(a4)
     5f4:	4c49                	li	s8,18
     5f6:	5f5f4e4f          	fnmadd.q	ft8,ft10,fs5,fa1,rmm
     5fa:	2820                	fld	fs0,80(s0)
     5fc:	6428                	flw	fa0,72(s0)
     5fe:	6c62756f          	jal	a0,27cc4 <__Vectors-0x3d833c>
     602:	2965                	jal	aba <__Vectors-0x3ff546>
     604:	2e32                	fld	ft8,264(sp)
     606:	3232                	fld	ft4,296(sp)
     608:	3430                	fld	fa2,104(s0)
     60a:	3634                	fld	fa3,104(a2)
     60c:	3430                	fld	fa2,104(s0)
     60e:	3239                	jal	ffffff1c <__end+0xffbffcec>
     610:	3035                	jal	fffffe3c <__end+0xffbffc0c>
     612:	30333133          	0x30333133
     616:	3038                	fld	fa4,96(s0)
     618:	3438                	fld	fa4,104(s0)
     61a:	33363237          	lui	tp,0x33363
     61e:	31363333          	0x31363333
     622:	3138                	fld	fa4,96(a0)
     624:	3436                	fld	fs0,360(sp)
     626:	3630                	fld	fa2,104(a2)
     628:	6532                	flw	fa0,12(sp)
     62a:	312d                	jal	254 <__Vectors-0x3ffdac>
     62c:	4c36                	lw	s8,76(sp)
     62e:	0029                	c.nop	10
     630:	5f5f 4c46 3654      	0x36544c465f5f
     636:	5834                	lw	a3,112(s0)
     638:	4d5f 4e49 315f      	0x315f4e494d5f
     63e:	5f30                	lw	a2,120(a4)
     640:	5845                	li	a6,-15
     642:	5f50                	lw	a2,60(a4)
     644:	205f 2d28 3934      	0x39342d28205f
     64a:	00293133          	sltu	sp,s2,sp
     64e:	5f5f 4c46 3654      	0x36544c465f5f
     654:	5834                	lw	a3,112(s0)
     656:	445f 4345 4d49      	0x4d494345445f
     65c:	4c41                	li	s8,16
     65e:	445f 4749 5f5f      	0x5f5f4749445f
     664:	3320                	fld	fs0,96(a4)
     666:	0036                	c.slli	zero,0xd
     668:	5f5f 4957 544e      	0x544e49575f5f
     66e:	4d5f 5841 5f5f      	0x5f5f58414d5f
     674:	3020                	fld	fs0,96(s0)
     676:	6678                	flw	fa4,76(a2)
     678:	6666                	flw	fa2,88(sp)
     67a:	6666                	flw	fa2,88(sp)
     67c:	6666                	flw	fa2,88(sp)
     67e:	5566                	lw	a0,120(sp)
     680:	5f00                	lw	s0,56(a4)
     682:	535f 5a49 5f45      	0x5f455a49535f
     688:	5954                	lw	a3,52(a0)
     68a:	4550                	lw	a2,12(a0)
     68c:	5f5f 7520 736e      	0x736e75205f5f
     692:	6769                	lui	a4,0x1a
     694:	656e                	flw	fa0,216(sp)
     696:	2064                	fld	fs1,192(s0)
     698:	6e69                	lui	t3,0x1a
     69a:	0074                	addi	a3,sp,12
     69c:	5f5f 4c46 3654      	0x36544c465f5f
     6a2:	5f34                	lw	a3,120(a4)
     6a4:	4148                	lw	a0,4(a0)
     6a6:	55515f53          	0x55515f53
     6aa:	4549                	li	a0,18
     6ac:	5f54                	lw	a3,60(a4)
     6ae:	414e                	lw	sp,208(sp)
     6b0:	5f4e                	lw	t5,240(sp)
     6b2:	205f 0031 5f5f      	0x5f5f0031205f
     6b8:	4544                	lw	s1,12(a0)
     6ba:	5f343643          	fmadd.q	fa2,fs0,fs3,fa1,rup
     6be:	4e425553          	0x4e425553
     6c2:	414d524f          	fnmadd.s	ft4,fs10,fs4,fs0,unknown
     6c6:	5f4c                	lw	a1,60(a4)
     6c8:	494d                	li	s2,19
     6ca:	5f4e                	lw	t5,240(sp)
     6cc:	205f 2e30 3030      	0x30302e30205f
     6d2:	3030                	fld	fa2,96(s0)
     6d4:	3030                	fld	fa2,96(s0)
     6d6:	3030                	fld	fa2,96(s0)
     6d8:	3030                	fld	fa2,96(s0)
     6da:	3030                	fld	fa2,96(s0)
     6dc:	3030                	fld	fa2,96(s0)
     6de:	4531                	li	a0,12
     6e0:	332d                	jal	40a <__Vectors-0x3ffbf6>
     6e2:	3338                	fld	fa4,96(a4)
     6e4:	4444                	lw	s1,12(s0)
     6e6:	5f00                	lw	s0,56(a4)
     6e8:	535f 4843 5241      	0x52414843535f
     6ee:	575f 4449 4854      	0x48544449575f
     6f4:	5f5f 3820 5f00      	0x5f0038205f5f
     6fa:	445f 4c42 4d5f      	0x4d5f4c42445f
     700:	4e41                	li	t3,16
     702:	5f54                	lw	a3,60(a4)
     704:	4944                	lw	s1,20(a0)
     706:	205f5f47          	fmsub.s	ft10,ft10,ft5,ft4,unknown
     70a:	3335                	jal	436 <__Vectors-0x3ffbca>
     70c:	5800                	lw	s0,48(s0)
     70e:	5242                	lw	tp,48(sp)
     710:	3238                	fld	fa4,96(a2)
     712:	5f30                	lw	a2,120(a4)
     714:	4d50                	lw	a2,28(a0)
     716:	5f55                	li	t5,-11
     718:	4142                	lw	sp,16(sp)
     71a:	28204553          	0x28204553
     71e:	7830                	flw	fa2,112(s0)
     720:	6631                	lui	a2,0xc
     722:	3031                	jal	ffffff2e <__end+0xffbffcfe>
     724:	3030                	fld	fa2,96(s0)
     726:	3030                	fld	fa2,96(s0)
     728:	4c55                	li	s8,21
     72a:	0029                	c.nop	10
     72c:	5f5f 4955 544e      	0x544e49555f5f
     732:	4c5f 4145 5453      	0x545341454c5f
     738:	3436                	fld	fs0,360(sp)
     73a:	545f 5059 5f45      	0x5f455059545f
     740:	205f 6f6c 676e      	0x676e6f6c205f
     746:	6c20                	flw	fs0,88(s0)
     748:	20676e6f          	jal	t3,7694e <__Vectors-0x3896b2>
     74c:	6e75                	lui	t3,0x1d
     74e:	6e676973          	csrrsi	s2,0x6e6,14
     752:	6465                	lui	s0,0x19
     754:	6920                	flw	fs0,80(a0)
     756:	746e                	flw	fs0,248(sp)
     758:	5f00                	lw	s0,56(a4)
     75a:	445f 4c42 4d5f      	0x4d5f4c42445f
     760:	4e49                	li	t3,18
     762:	5f5f 2820 6428      	0x642828205f5f
     768:	6c62756f          	jal	a0,27e2e <__Vectors-0x3d81d2>
     76c:	2965                	jal	c24 <__Vectors-0x3ff3dc>
     76e:	2e32                	fld	ft8,264(sp)
     770:	3232                	fld	ft4,296(sp)
     772:	3035                	jal	ffffff9e <__end+0xffbffd6e>
     774:	35383337          	lui	t1,0x35383
     778:	3538                	fld	fa4,104(a0)
     77a:	3730                	fld	fa2,104(a4)
     77c:	3032                	fld	ft0,296(sp)
     77e:	3331                	jal	48a <__Vectors-0x3ffb76>
     780:	3338                	fld	fa4,96(a4)
     782:	3930                	fld	fa2,112(a0)
     784:	3230                	fld	fa2,96(a2)
     786:	31373233          	0x31373233
     78a:	32333337          	lui	t1,0x32333
     78e:	3034                	fld	fa3,96(s0)
     790:	3034                	fld	fa3,96(s0)
     792:	6536                	flw	fa0,76(sp)
     794:	332d                	jal	4be <__Vectors-0x3ffb42>
     796:	3830                	fld	fa2,112(s0)
     798:	294c                	fld	fa1,144(a0)
     79a:	5f00                	lw	s0,56(a4)
     79c:	495f 544e 5450      	0x5450544e495f
     7a2:	5f52                	lw	t5,52(sp)
     7a4:	5954                	lw	a3,52(a0)
     7a6:	4550                	lw	a2,12(a0)
     7a8:	5f5f 6920 746e      	0x746e69205f5f
     7ae:	5f00                	lw	s0,56(a4)
     7b0:	495f 544e 4c5f      	0x4c5f544e495f
     7b6:	4145                	li	sp,17
     7b8:	34365453          	0x34365453
     7bc:	4d5f 5841 5f5f      	0x5f5f58414d5f
     7c2:	3020                	fld	fs0,96(s0)
     7c4:	3778                	fld	fa4,232(a4)
     7c6:	6666                	flw	fa2,88(sp)
     7c8:	6666                	flw	fa2,88(sp)
     7ca:	6666                	flw	fa2,88(sp)
     7cc:	6666                	flw	fa2,88(sp)
     7ce:	6666                	flw	fa2,88(sp)
     7d0:	6666                	flw	fa2,88(sp)
     7d2:	6666                	flw	fa2,88(sp)
     7d4:	4c66                	lw	s8,88(sp)
     7d6:	004c                	addi	a1,sp,4
     7d8:	5f5f 444c 4c42      	0x4c42444c5f5f
     7de:	4d5f 4e49 315f      	0x315f4e494d5f
     7e4:	5f30                	lw	a2,120(a4)
     7e6:	5845                	li	a6,-15
     7e8:	5f50                	lw	a2,60(a4)
     7ea:	205f 2d28 3934      	0x39342d28205f
     7f0:	00293133          	sltu	sp,s2,sp
     7f4:	5f5f 4853 5452      	0x545248535f5f
     7fa:	575f 4449 4854      	0x48544449575f
     800:	5f5f 3120 0036      	0x3631205f5f
     806:	5f5f 4544 3343      	0x334345445f5f
     80c:	5f32                	lw	t5,44(sp)
     80e:	414d                	li	sp,19
     810:	5f58                	lw	a4,60(a4)
     812:	5845                	li	a6,-15
     814:	5f50                	lw	a2,60(a4)
     816:	205f 3739 5f00      	0x5f003739205f
     81c:	555f 4e49 3854      	0x38544e49555f
     822:	545f 5059 5f45      	0x5f455059545f
     828:	205f 6e75 6973      	0x69736e75205f
     82e:	64656e67          	0x64656e67
     832:	6320                	flw	fs0,64(a4)
     834:	6168                	flw	fa0,68(a0)
     836:	0072                	c.slli	zero,0x1c
     838:	5f5f 4953 5f47      	0x5f4749535f5f
     83e:	5441                	li	s0,-16
     840:	43494d4f          	fnmadd.d	fs10,fs2,fs4,fs0,rmm
     844:	545f 5059 5f45      	0x5f455059545f
     84a:	205f 6e69 0074      	0x746e69205f
     850:	5f5f 4544 3643      	0x364345445f5f
     856:	5f34                	lw	a3,120(a4)
     858:	414d                	li	sp,19
     85a:	5f58                	lw	a4,60(a4)
     85c:	5845                	li	a6,-15
     85e:	5f50                	lw	a2,60(a4)
     860:	205f 3833 0035      	0x353833205f
     866:	5f5f 4347 5f43      	0x5f4343475f5f
     86c:	5441                	li	s0,-16
     86e:	43494d4f          	fnmadd.d	fs10,fs2,fs4,fs0,rmm
     872:	575f 4843 5241      	0x52414843575f
     878:	545f 4c5f 434f      	0x434f4c5f545f
     87e:	52465f4b          	fnmsub.d	ft10,fa2,ft4,fa0,unknown
     882:	4545                	li	a0,17
     884:	3120                	fld	fs0,96(a0)
     886:	5f00                	lw	s0,56(a4)
     888:	505f 4152 4d47      	0x4d474152505f
     88e:	5f41                	li	t5,-16
     890:	4552                	lw	a0,20(sp)
     892:	4544                	lw	s1,12(a0)
     894:	4946                	lw	s2,80(sp)
     896:	454e                	lw	a0,208(sp)
     898:	455f 5458 414e      	0x414e5458455f
     89e:	454d                	li	a0,19
     8a0:	3120                	fld	fs0,96(a0)
     8a2:	5f00                	lw	s0,56(a4)
     8a4:	495f 544e 4c5f      	0x4c5f544e495f
     8aa:	4145                	li	sp,17
     8ac:	36315453          	0x36315453
     8b0:	575f 4449 4854      	0x48544449575f
     8b6:	5f5f 3120 0036      	0x3631205f5f
     8bc:	5f5f 4347 5f43      	0x5f4343475f5f
     8c2:	5441                	li	s0,-16
     8c4:	43494d4f          	fnmadd.d	fs10,fs2,fs4,fs0,rmm
     8c8:	545f 5345 5f54      	0x5f545345545f
     8ce:	4e41                	li	t3,16
     8d0:	5f44                	lw	s1,60(a4)
     8d2:	5f544553          	0x5f544553
     8d6:	5254                	lw	a3,36(a2)
     8d8:	4555                	li	a0,21
     8da:	4156                	lw	sp,84(sp)
     8dc:	204c                	fld	fa1,128(s0)
     8de:	0031                	c.nop	12
     8e0:	5f5f 444c 4c42      	0x4c42444c5f5f
     8e6:	4d5f 5841 5f5f      	0x5f5f58414d5f
     8ec:	3120                	fld	fs0,96(a0)
     8ee:	312e                	fld	ft2,232(sp)
     8f0:	3938                	fld	fa4,112(a0)
     8f2:	34313337          	lui	t1,0x34313
     8f6:	3539                	jal	704 <__Vectors-0x3ff8fc>
     8f8:	32373533          	0x32373533
     8fc:	36373133          	0x36373133
     900:	3035                	jal	12c <__Vectors-0x3ffed4>
     902:	3538                	fld	fa4,104(a0)
     904:	33393537          	lui	a0,0x33393
     908:	3632                	fld	fa2,296(sp)
     90a:	3236                	fld	ft4,360(sp)
     90c:	3038                	fld	fa4,96(s0)
     90e:	3730                	fld	fa2,104(a4)
     910:	3230                	fld	fa2,96(a2)
     912:	2b65                	jal	eca <__Vectors-0x3ff136>
     914:	3934                	fld	fa3,112(a0)
     916:	004c3233          	sltu	tp,s8,tp
     91a:	5f5f 444c 4c42      	0x4c42444c5f5f
     920:	4d5f 5841 455f      	0x455f58414d5f
     926:	5058                	lw	a4,36(s0)
     928:	5f5f 3120 3336      	0x333631205f5f
     92e:	3438                	fld	fa4,104(s0)
     930:	5f00                	lw	s0,56(a4)
     932:	4c5f 4244 5f4c      	0x5f4c42444c5f
     938:	4148                	lw	a0,4(a0)
     93a:	4e495f53          	0x4e495f53
     93e:	4946                	lw	s2,80(sp)
     940:	494e                	lw	s2,208(sp)
     942:	5954                	lw	a3,52(a0)
     944:	5f5f 3120 5f00      	0x5f0031205f5f
     94a:	465f 544c 485f      	0x485f544c465f
     950:	5341                	li	t1,-16
     952:	445f 4e45 524f      	0x524f4e45445f
     958:	5f4d                	li	t5,-13
     95a:	205f 0031 5f5f      	0x5f5f0031205f
     960:	4c46                	lw	s8,80(sp)
     962:	3154                	fld	fa3,160(a0)
     964:	3832                	fld	fa6,296(sp)
     966:	4d5f 4e49 455f      	0x455f4e494d5f
     96c:	5058                	lw	a4,36(s0)
     96e:	5f5f 2820 312d      	0x312d28205f5f
     974:	3336                	fld	ft6,360(sp)
     976:	3138                	fld	fa4,96(a0)
     978:	0029                	c.nop	10
     97a:	5f5f 4955 544e      	0x544e49555f5f
     980:	465f 5341 3154      	0x31545341465f
     986:	5f36                	lw	t5,108(sp)
     988:	414d                	li	sp,19
     98a:	5f58                	lw	a4,60(a4)
     98c:	205f 7830 6666      	0x66667830205f
     992:	6666                	flw	fa2,88(sp)
     994:	6666                	flw	fa2,88(sp)
     996:	6666                	flw	fa2,88(sp)
     998:	0055                	c.nop	21
     99a:	5f5f 4e49 5054      	0x50544e495f5f
     9a0:	5254                	lw	a3,36(a2)
     9a2:	4d5f 5841 5f5f      	0x5f5f58414d5f
     9a8:	3020                	fld	fs0,96(s0)
     9aa:	3778                	fld	fa4,232(a4)
     9ac:	6666                	flw	fa2,88(sp)
     9ae:	6666                	flw	fa2,88(sp)
     9b0:	6666                	flw	fa2,88(sp)
     9b2:	0066                	c.slli	zero,0x19
     9b4:	5f5f 4955 544e      	0x544e49555f5f
     9ba:	3631                	jal	4c6 <__Vectors-0x3ffb3a>
     9bc:	4d5f 5841 5f5f      	0x5f5f58414d5f
     9c2:	3020                	fld	fs0,96(s0)
     9c4:	6678                	flw	fa4,76(a2)
     9c6:	6666                	flw	fa2,88(sp)
     9c8:	0066                	c.slli	zero,0x19
     9ca:	5f5f 4e49 3854      	0x38544e495f5f
     9d0:	545f 5059 5f45      	0x5f455059545f
     9d6:	205f 6973 6e67      	0x6e676973205f
     9dc:	6465                	lui	s0,0x19
     9de:	6320                	flw	fs0,64(a4)
     9e0:	6168                	flw	fa0,68(a0)
     9e2:	0072                	c.slli	zero,0x1c
     9e4:	5f5f 5942 4554      	0x455459425f5f
     9ea:	4f5f 4452 5245      	0x524544524f5f
     9f0:	5f5f 5f20 4f5f      	0x4f5f5f205f5f
     9f6:	4452                	lw	s0,20(sp)
     9f8:	5245                	li	tp,-15
     9fa:	4c5f 5449 4c54      	0x4c5454494c5f
     a00:	5f45                	li	t5,-15
     a02:	4e45                	li	t3,17
     a04:	4944                	lw	s1,20(a0)
     a06:	4e41                	li	t3,16
     a08:	5f5f 5f00 4c5f      	0x4c5f5f005f5f
     a0e:	5f474e4f          	fnmadd.q	ft8,fa4,fs4,fa1,rmm
     a12:	54444957          	0x54444957
     a16:	5f48                	lw	a0,60(a4)
     a18:	205f 3233 5f00      	0x5f003233205f
     a1e:	475f 4343 415f      	0x415f4343475f
     a24:	4f54                	lw	a3,28(a4)
     a26:	494d                	li	s2,19
     a28:	4c4c5f43          	fmadd.h	ft10,fs8,ft4,fs1,unknown
     a2c:	5f474e4f          	fnmadd.q	ft8,fa4,fs4,fa1,rmm
     a30:	4f4c                	lw	a1,28(a4)
     a32:	465f4b43          	fmadd.q	fs6,ft10,ft5,fs0,rmm
     a36:	4552                	lw	a0,20(sp)
     a38:	2045                	jal	ad8 <__Vectors-0x3ff528>
     a3a:	0031                	c.nop	12
     a3c:	5f5f 4c46 414f      	0x414f4c465f5f
     a42:	5f54                	lw	a3,60(a4)
     a44:	44524f57          	0x44524f57
     a48:	4f5f 4452 5245      	0x524544524f5f
     a4e:	5f5f 5f20 4f5f      	0x4f5f5f205f5f
     a54:	4452                	lw	s0,20(sp)
     a56:	5245                	li	tp,-15
     a58:	4c5f 5449 4c54      	0x4c5454494c5f
     a5e:	5f45                	li	t5,-15
     a60:	4e45                	li	t3,17
     a62:	4944                	lw	s1,20(a0)
     a64:	4e41                	li	t3,16
     a66:	5f5f 5f00 555f      	0x555f5f005f5f
     a6c:	4e49                	li	t3,18
     a6e:	5f54                	lw	a3,60(a4)
     a70:	454c                	lw	a1,12(a0)
     a72:	5341                	li	t1,-16
     a74:	3154                	fld	fa3,160(a0)
     a76:	5f36                	lw	t5,108(sp)
     a78:	414d                	li	sp,19
     a7a:	5f58                	lw	a4,60(a4)
     a7c:	205f 7830 6666      	0x66667830205f
     a82:	6666                	flw	fa2,88(sp)
     a84:	5800                	lw	s0,48(s0)
     a86:	5242                	lw	tp,48(sp)
     a88:	3238                	fld	fa4,96(a2)
     a8a:	5f30                	lw	a2,120(a4)
     a8c:	4d415253          	0x4d415253
     a90:	535f 5a49 2045      	0x20455a49535f
     a96:	3028                	fld	fa0,96(s0)
     a98:	3078                	fld	fa4,224(s0)
     a9a:	3030                	fld	fa2,96(s0)
     a9c:	3130                	fld	fa2,96(a0)
     a9e:	3030                	fld	fa2,96(s0)
     aa0:	5530                	lw	a2,104(a0)
     aa2:	294c                	fld	fa1,144(a0)
     aa4:	5f00                	lw	s0,56(a4)
     aa6:	495f 544e 3233      	0x3233544e495f
     aac:	545f 5059 5f45      	0x5f455059545f
     ab2:	205f 6f6c 676e      	0x676e6f6c205f
     ab8:	6920                	flw	fs0,80(a0)
     aba:	746e                	flw	fs0,248(sp)
     abc:	5f00                	lw	s0,56(a4)
     abe:	495f 544e 4c5f      	0x4c5f544e495f
     ac4:	4145                	li	sp,17
     ac6:	36315453          	0x36315453
     aca:	545f 5059 5f45      	0x5f455059545f
     ad0:	205f 6873 726f      	0x726f6873205f
     ad6:	2074                	fld	fa3,192(s0)
     ad8:	6e69                	lui	t3,0x1a
     ada:	0074                	addi	a3,sp,12
     adc:	5f5f 4e49 5f54      	0x5f544e495f5f
     ae2:	4146                	lw	sp,80(sp)
     ae4:	36315453          	0x36315453
     ae8:	545f 5059 5f45      	0x5f455059545f
     aee:	205f 6e69 0074      	0x746e69205f
     af4:	5f5f 4e49 4d54      	0x4d544e495f5f
     afa:	5841                	li	a6,-16
     afc:	4d5f 5841 5f5f      	0x5f5f58414d5f
     b02:	3020                	fld	fs0,96(s0)
     b04:	3778                	fld	fa4,232(a4)
     b06:	6666                	flw	fa2,88(sp)
     b08:	6666                	flw	fa2,88(sp)
     b0a:	6666                	flw	fa2,88(sp)
     b0c:	6666                	flw	fa2,88(sp)
     b0e:	6666                	flw	fa2,88(sp)
     b10:	6666                	flw	fa2,88(sp)
     b12:	6666                	flw	fa2,88(sp)
     b14:	4c66                	lw	s8,88(sp)
     b16:	004c                	addi	a1,sp,4
     b18:	5f5f 4c46 5f54      	0x5f544c465f5f
     b1e:	4544                	lw	s1,12(a0)
     b20:	4f4e                	lw	t5,208(sp)
     b22:	4d52                	lw	s10,20(sp)
     b24:	4d5f 4e49 5f5f      	0x5f5f4e494d5f
     b2a:	3120                	fld	fs0,96(a0)
     b2c:	342e                	fld	fs0,232(sp)
     b2e:	3130                	fld	fa2,96(a0)
     b30:	3932                	fld	fs2,296(sp)
     b32:	3438                	fld	fa4,104(s0)
     b34:	3436                	fld	fs0,360(sp)
     b36:	38343233          	0x38343233
     b3a:	3731                	jal	a46 <__Vectors-0x3ff5ba>
     b3c:	3730                	fld	fa2,104(a4)
     b3e:	3930                	fld	fa2,112(a0)
     b40:	3332                	fld	ft6,296(sp)
     b42:	35393237          	lui	tp,0x35393
     b46:	3338                	fld	fa4,96(a4)
     b48:	3832                	fld	fa6,296(sp)
     b4a:	3939                	jal	768 <__Vectors-0x3ff898>
     b4c:	3631                	jal	658 <__Vectors-0x3ff9a8>
     b4e:	3331                	jal	85a <__Vectors-0x3ff7a6>
     b50:	2d65                	jal	1208 <__Vectors-0x3fedf8>
     b52:	3534                	fld	fa3,104(a0)
     b54:	0046                	c.slli	zero,0x11
     b56:	5f5f 444c 4c42      	0x4c42444c5f5f
     b5c:	445f 4e45 524f      	0x524f4e45445f
     b62:	5f4d                	li	t5,-13
     b64:	494d                	li	s2,19
     b66:	5f4e                	lw	t5,240(sp)
     b68:	205f 2e36 3734      	0x37342e36205f
     b6e:	3135                	jal	79a <__Vectors-0x3ff866>
     b70:	31313537          	lui	a0,0x31313
     b74:	3439                	jal	582 <__Vectors-0x3ffa7e>
     b76:	32303833          	0x32303833
     b7a:	3135                	jal	7a6 <__Vectors-0x3ff85a>
     b7c:	3031                	jal	388 <__Vectors-0x3ffc78>
     b7e:	3239                	jal	48c <__Vectors-0x3ffb74>
     b80:	3434                	fld	fa3,104(s0)
     b82:	35393833          	0x35393833
     b86:	3238                	fld	fa4,96(a2)
     b88:	3732                	fld	fa4,296(sp)
     b8a:	3436                	fld	fs0,360(sp)
     b8c:	3536                	fld	fa0,360(sp)
     b8e:	6535                	lui	a0,0xd
     b90:	342d                	jal	5ba <__Vectors-0x3ffa46>
     b92:	3639                	jal	6a0 <__Vectors-0x3ff960>
     b94:	4c36                	lw	s8,76(sp)
     b96:	5f00                	lw	s0,56(a4)
     b98:	535f 5a49 4f45      	0x4f455a49535f
     b9e:	5f46                	lw	t5,112(sp)
     ba0:	4f44                	lw	s1,28(a4)
     ba2:	4255                	li	tp,21
     ba4:	454c                	lw	a1,12(a0)
     ba6:	5f5f 3820 5f00      	0x5f0038205f5f
     bac:	455f 464c 5f5f      	0x5f5f464c455f
     bb2:	3120                	fld	fs0,96(a0)
     bb4:	5f00                	lw	s0,56(a4)
     bb6:	555f 4e49 3854      	0x38544e49555f
     bbc:	4d5f 5841 5f5f      	0x5f5f58414d5f
     bc2:	3020                	fld	fs0,96(s0)
     bc4:	6678                	flw	fa4,76(a2)
     bc6:	0066                	c.slli	zero,0x19
     bc8:	5f5f 4953 455a      	0x455a49535f5f
     bce:	4d5f 5841 5f5f      	0x5f5f58414d5f
     bd4:	3020                	fld	fs0,96(s0)
     bd6:	6678                	flw	fa4,76(a2)
     bd8:	6666                	flw	fa2,88(sp)
     bda:	6666                	flw	fa2,88(sp)
     bdc:	6666                	flw	fa2,88(sp)
     bde:	5566                	lw	a0,120(sp)
     be0:	5f00                	lw	s0,56(a4)
     be2:	475f 4343 485f      	0x485f4343475f
     be8:	5641                	li	a2,-16
     bea:	5f45                	li	t5,-15
     bec:	5744                	lw	s1,44(a4)
     bee:	5241                	li	tp,-16
     bf0:	3246                	fld	ft4,112(sp)
     bf2:	435f 4946 415f      	0x415f4946435f
     bf8:	31204d53          	0x31204d53
     bfc:	5f00                	lw	s0,56(a4)
     bfe:	465f 544c 3233      	0x3233544c465f
     c04:	4d5f 5841 455f      	0x455f58414d5f
     c0a:	5058                	lw	a4,36(s0)
     c0c:	5f5f 3120 3832      	0x383231205f5f
     c12:	5f00                	lw	s0,56(a4)
     c14:	495f 544e 3233      	0x3233544e495f
     c1a:	435f 6328 2029      	0x20296328435f
     c20:	23232063          	0x23232063
     c24:	4c20                	lw	s0,88(s0)
     c26:	5f00                	lw	s0,56(a4)
     c28:	465f 544c 3436      	0x3436544c465f
     c2e:	4d5f 5841 455f      	0x455f58414d5f
     c34:	5058                	lw	a4,36(s0)
     c36:	5f5f 3120 3230      	0x323031205f5f
     c3c:	0034                	addi	a3,sp,8
     c3e:	5f5f 4e49 5054      	0x50544e495f5f
     c44:	5254                	lw	a3,36(a2)
     c46:	575f 4449 4854      	0x48544449575f
     c4c:	5f5f 3320 0032      	0x3233205f5f
     c52:	5f5f 4953 455a      	0x455a49535f5f
     c58:	575f 4449 4854      	0x48544449575f
     c5e:	5f5f 3320 0032      	0x3233205f5f
     c64:	5f5f 4c46 3354      	0x33544c465f5f
     c6a:	5f32                	lw	t5,44(sp)
     c6c:	5045                	c.li	zero,-15
     c6e:	4f4c4953          	0x4f4c4953
     c72:	5f4e                	lw	t5,240(sp)
     c74:	205f 2e31 3931      	0x39312e31205f
     c7a:	3032                	fld	ft0,296(sp)
     c7c:	3239                	jal	58a <__Vectors-0x3ffa76>
     c7e:	3938                	fld	fa4,112(a0)
     c80:	3535                	jal	aac <__Vectors-0x3ff554>
     c82:	3730                	fld	fa2,104(a4)
     c84:	3138                	fld	fa4,96(a0)
     c86:	3532                	fld	fa0,296(sp)
     c88:	3030                	fld	fa2,96(s0)
     c8a:	3030                	fld	fa2,96(s0)
     c8c:	3030                	fld	fa2,96(s0)
     c8e:	3030                	fld	fa2,96(s0)
     c90:	3030                	fld	fa2,96(s0)
     c92:	3030                	fld	fa2,96(s0)
     c94:	3030                	fld	fa2,96(s0)
     c96:	3030                	fld	fa2,96(s0)
     c98:	3030                	fld	fa2,96(s0)
     c9a:	6530                	flw	fa2,72(a0)
     c9c:	372d                	jal	bc6 <__Vectors-0x3ff43a>
     c9e:	3346                	fld	ft6,112(sp)
     ca0:	0032                	c.slli	zero,0xc
     ca2:	5f5f 4955 544e      	0x544e49555f5f
     ca8:	414d                	li	sp,19
     caa:	5f58                	lw	a4,60(a4)
     cac:	5954                	lw	a3,52(a0)
     cae:	4550                	lw	a2,12(a0)
     cb0:	5f5f 6c20 6e6f      	0x6e6f6c205f5f
     cb6:	6f6c2067          	0x6f6c2067
     cba:	676e                	flw	fa4,216(sp)
     cbc:	7520                	flw	fs0,104(a0)
     cbe:	736e                	flw	ft6,248(sp)
     cc0:	6769                	lui	a4,0x1a
     cc2:	656e                	flw	fa0,216(sp)
     cc4:	2064                	fld	fs1,192(s0)
     cc6:	6e69                	lui	t3,0x1a
     cc8:	0074                	addi	a3,sp,12
     cca:	5f5f 4953 5f47      	0x5f4749535f5f
     cd0:	5441                	li	s0,-16
     cd2:	43494d4f          	fnmadd.d	fs10,fs2,fs4,fs0,rmm
     cd6:	575f 4449 4854      	0x48544449575f
     cdc:	5f5f 3320 0032      	0x3233205f5f
     ce2:	5f5f 4955 544e      	0x544e49555f5f
     ce8:	465f 5341 3654      	0x36545341465f
     cee:	5f34                	lw	a3,120(a4)
     cf0:	414d                	li	sp,19
     cf2:	5f58                	lw	a4,60(a4)
     cf4:	205f 7830 6666      	0x66667830205f
     cfa:	6666                	flw	fa2,88(sp)
     cfc:	6666                	flw	fa2,88(sp)
     cfe:	6666                	flw	fa2,88(sp)
     d00:	6666                	flw	fa2,88(sp)
     d02:	6666                	flw	fa2,88(sp)
     d04:	6666                	flw	fa2,88(sp)
     d06:	6666                	flw	fa2,88(sp)
     d08:	4c55                	li	s8,21
     d0a:	004c                	addi	a1,sp,4
     d0c:	5f5f 444c 4c42      	0x4c42444c5f5f
     d12:	4d5f 4e49 455f      	0x455f4e494d5f
     d18:	5058                	lw	a4,36(s0)
     d1a:	5f5f 2820 312d      	0x312d28205f5f
     d20:	3336                	fld	ft6,360(sp)
     d22:	3138                	fld	fa4,96(a0)
     d24:	0029                	c.nop	10
     d26:	5f5f 4953 455a      	0x455a49535f5f
     d2c:	4c5f464f          	fnmadd.h	fa2,ft10,ft5,fs1,rmm
     d30:	5f474e4f          	fnmadd.q	ft8,fa4,fs4,fa1,rmm
     d34:	4f4c                	lw	a1,28(a4)
     d36:	474e                	lw	a4,208(sp)
     d38:	5f5f 3820 5f00      	0x5f0038205f5f
     d3e:	465f 544c 445f      	0x445f544c465f
     d44:	4749                	li	a4,18
     d46:	5f5f 3620 5f00      	0x5f0036205f5f
     d4c:	445f 4c42 445f      	0x445f4c42445f
     d52:	4e45                	li	t3,17
     d54:	5f4d524f          	fnmadd.q	ft4,fs10,fs4,fa1,unknown
     d58:	494d                	li	s2,19
     d5a:	5f4e                	lw	t5,240(sp)
     d5c:	205f 2828 6f64      	0x6f642828205f
     d62:	6275                	lui	tp,0x1d
     d64:	656c                	flw	fa1,76(a0)
     d66:	3429                	jal	770 <__Vectors-0x3ff890>
     d68:	392e                	fld	fs2,232(sp)
     d6a:	3034                	fld	fa3,96(s0)
     d6c:	3536                	fld	fa0,360(sp)
     d6e:	3436                	fld	fs0,360(sp)
     d70:	3835                	jal	5ac <__Vectors-0x3ffa54>
     d72:	3134                	fld	fa3,96(a0)
     d74:	3432                	fld	fs0,296(sp)
     d76:	3536                	fld	fa0,360(sp)
     d78:	3434                	fld	fa3,104(s0)
     d7a:	3731                	jal	c86 <__Vectors-0x3ff37a>
     d7c:	3536                	fld	fa0,360(sp)
     d7e:	3836                	fld	fa6,360(sp)
     d80:	38323937          	lui	s2,0x38323
     d84:	3836                	fld	fa6,360(sp)
     d86:	3232                	fld	ft4,296(sp)
     d88:	3331                	jal	a94 <__Vectors-0x3ff56c>
     d8a:	2d653237          	lui	tp,0x2d653
     d8e:	4c343233          	0x4c343233
     d92:	0029                	c.nop	10
     d94:	5f5f 4244 5f4c      	0x5f4c42445f5f
     d9a:	494d                	li	s2,19
     d9c:	5f4e                	lw	t5,240(sp)
     d9e:	5845                	li	a6,-15
     da0:	5f50                	lw	a2,60(a4)
     da2:	205f 2d28 3031      	0x30312d28205f
     da8:	3132                	fld	ft2,296(sp)
     daa:	0029                	c.nop	10
     dac:	5f5f 4c46 5f54      	0x5f544c465f5f
     db2:	414d                	li	sp,19
     db4:	5f58                	lw	a4,60(a4)
     db6:	3031                	jal	5c2 <__Vectors-0x3ffa3e>
     db8:	455f 5058 5f5f      	0x5f5f5058455f
     dbe:	3320                	fld	fs0,96(a4)
     dc0:	0038                	addi	a4,sp,8
     dc2:	5f5f 4957 544e      	0x544e49575f5f
     dc8:	4d5f 4e49 5f5f      	0x5f5f4e494d5f
     dce:	3020                	fld	fs0,96(s0)
     dd0:	0055                	c.nop	21
     dd2:	5f5f 4953 455a      	0x455a49535f5f
     dd8:	4c5f464f          	fnmadd.h	fa2,ft10,ft5,fs1,rmm
     ddc:	5f474e4f          	fnmadd.q	ft8,fa4,fs4,fa1,rmm
     de0:	4f44                	lw	s1,28(a4)
     de2:	4255                	li	tp,21
     de4:	454c                	lw	a1,12(a0)
     de6:	5f5f 3120 0036      	0x3631205f5f
     dec:	5f5f 4258 3852      	0x385242585f5f
     df2:	3032                	fld	ft0,296(sp)
     df4:	485f 5f5f 0020      	0x205f5f485f
     dfa:	5f5f 4e49 3854      	0x38544e495f5f
     e00:	435f 6328 2029      	0x20296328435f
     e06:	5f5f0063          	beq	t5,s5,13e6 <__Vectors-0x3fec1a>
     e0a:	4c46                	lw	s8,80(sp)
     e0c:	3354                	fld	fa3,160(a4)
     e0e:	5f32                	lw	t5,44(sp)
     e10:	494d                	li	s2,19
     e12:	5f4e                	lw	t5,240(sp)
     e14:	205f 2e31 3731      	0x37312e31205f
     e1a:	3435                	jal	846 <__Vectors-0x3ff7ba>
     e1c:	3439                	jal	82a <__Vectors-0x3ff7d6>
     e1e:	38303533          	0x38303533
     e22:	3232                	fld	ft4,296(sp)
     e24:	3832                	fld	fa6,296(sp)
     e26:	37303537          	lui	a0,0x37303
     e2a:	3639                	jal	938 <__Vectors-0x3ff6c8>
     e2c:	3738                	fld	fa4,104(a4)
     e2e:	33353633          	0x33353633
     e32:	32323237          	lui	tp,0x32323
     e36:	3432                	fld	fs0,296(sp)
     e38:	3635                	jal	964 <__Vectors-0x3ff69c>
     e3a:	6538                	flw	fa4,72(a0)
     e3c:	332d                	jal	b66 <__Vectors-0x3ff49a>
     e3e:	4638                	lw	a4,72(a2)
     e40:	5f003233          	0x5f003233
     e44:	555f 4e49 3654      	0x36544e49555f
     e4a:	5f34                	lw	a3,120(a4)
     e4c:	414d                	li	sp,19
     e4e:	5f58                	lw	a4,60(a4)
     e50:	205f 7830 6666      	0x66667830205f
     e56:	6666                	flw	fa2,88(sp)
     e58:	6666                	flw	fa2,88(sp)
     e5a:	6666                	flw	fa2,88(sp)
     e5c:	6666                	flw	fa2,88(sp)
     e5e:	6666                	flw	fa2,88(sp)
     e60:	6666                	flw	fa2,88(sp)
     e62:	6666                	flw	fa2,88(sp)
     e64:	4c55                	li	s8,21
     e66:	004c                	addi	a1,sp,4
     e68:	5f5f 4c46 3354      	0x33544c465f5f
     e6e:	5f32                	lw	t5,44(sp)
     e70:	4148                	lw	a0,4(a0)
     e72:	4e495f53          	0x4e495f53
     e76:	4946                	lw	s2,80(sp)
     e78:	494e                	lw	s2,208(sp)
     e7a:	5954                	lw	a3,52(a0)
     e7c:	5f5f 3120 5f00      	0x5f0031205f5f
     e82:	475f 554e 5f43      	0x5f43554e475f
     e88:	494d                	li	s2,19
     e8a:	4f4e                	lw	t5,208(sp)
     e8c:	5f52                	lw	t5,52(sp)
     e8e:	205f 0034 5f5f      	0x5f5f0034205f
     e94:	5954                	lw	a3,52(a0)
     e96:	4450                	lw	a2,12(s0)
     e98:	4645                	li	a2,17
     e9a:	485f 5f5f 0020      	0x205f5f485f
     ea0:	5f5f 4544 5f43      	0x5f4345445f5f
     ea6:	5645                	li	a2,-15
     ea8:	4c41                	li	s8,16
     eaa:	4d5f 5445 4f48      	0x4f4854454d5f
     eb0:	5f44                	lw	s1,60(a4)
     eb2:	205f 0032 5f5f      	0x5f5f0032205f
     eb8:	4544                	lw	s1,12(a0)
     eba:	5f323343          	fmadd.q	ft6,ft4,fs3,fa1,rup
     ebe:	414d                	li	sp,19
     ec0:	5f58                	lw	a4,60(a4)
     ec2:	205f 2e39 3939      	0x39392e39205f
     ec8:	3939                	jal	ae6 <__Vectors-0x3ff51a>
     eca:	3939                	jal	ae8 <__Vectors-0x3ff518>
     ecc:	3945                	jal	b7c <__Vectors-0x3ff484>
     ece:	4436                	lw	s0,76(sp)
     ed0:	0046                	c.slli	zero,0x11
     ed2:	5f5f 4f4c 474e      	0x474e4f4c5f5f
     ed8:	4c5f 4e4f 5f47      	0x5f474e4f4c5f
     ede:	414d                	li	sp,19
     ee0:	5f58                	lw	a4,60(a4)
     ee2:	205f 7830 6637      	0x66377830205f
     ee8:	6666                	flw	fa2,88(sp)
     eea:	6666                	flw	fa2,88(sp)
     eec:	6666                	flw	fa2,88(sp)
     eee:	6666                	flw	fa2,88(sp)
     ef0:	6666                	flw	fa2,88(sp)
     ef2:	6666                	flw	fa2,88(sp)
     ef4:	6666                	flw	fa2,88(sp)
     ef6:	4c4c                	lw	a1,28(s0)
     ef8:	5f00                	lw	s0,56(a4)
     efa:	465f 544c 3231      	0x3231544c465f
     f00:	5f38                	lw	a4,120(a4)
     f02:	4148                	lw	a0,4(a0)
     f04:	4e495f53          	0x4e495f53
     f08:	4946                	lw	s2,80(sp)
     f0a:	494e                	lw	s2,208(sp)
     f0c:	5954                	lw	a3,52(a0)
     f0e:	5f5f 3120 5f00      	0x5f0031205f5f
     f14:	495f 544e 465f      	0x465f544e495f
     f1a:	5341                	li	t1,-16
     f1c:	3154                	fld	fa3,160(a0)
     f1e:	5f36                	lw	t5,108(sp)
     f20:	54444957          	0x54444957
     f24:	5f48                	lw	a0,60(a4)
     f26:	205f 3233 5f00      	0x5f003233205f
     f2c:	465f 544c 3233      	0x3233544c465f
     f32:	4d5f 4e41 5f54      	0x5f544e414d5f
     f38:	4944                	lw	s1,20(a0)
     f3a:	205f5f47          	fmsub.s	ft10,ft10,ft5,ft4,unknown
     f3e:	3432                	fld	fs0,296(sp)
     f40:	5f00                	lw	s0,56(a4)
     f42:	465f 544c 485f      	0x485f544c465f
     f48:	5341                	li	t1,-16
     f4a:	515f 4955 5445      	0x54454955515f
     f50:	4e5f 4e41 5f5f      	0x5f5f4e414e5f
     f56:	3120                	fld	fs0,96(a0)
     f58:	5f00                	lw	s0,56(a4)
     f5a:	495f 544e 3436      	0x3436544e495f
     f60:	4d5f 5841 5f5f      	0x5f5f58414d5f
     f66:	3020                	fld	fs0,96(s0)
     f68:	3778                	fld	fa4,232(a4)
     f6a:	6666                	flw	fa2,88(sp)
     f6c:	6666                	flw	fa2,88(sp)
     f6e:	6666                	flw	fa2,88(sp)
     f70:	6666                	flw	fa2,88(sp)
     f72:	6666                	flw	fa2,88(sp)
     f74:	6666                	flw	fa2,88(sp)
     f76:	6666                	flw	fa2,88(sp)
     f78:	4c66                	lw	s8,88(sp)
     f7a:	004c                	addi	a1,sp,4
     f7c:	5f5f 4c46 5f54      	0x5f544c465f5f
     f82:	494d                	li	s2,19
     f84:	5f4e                	lw	t5,240(sp)
     f86:	5845                	li	a6,-15
     f88:	5f50                	lw	a2,60(a4)
     f8a:	205f 2d28 3231      	0x32312d28205f
     f90:	2935                	jal	13cc <__Vectors-0x3fec34>
     f92:	5800                	lw	s0,48(s0)
     f94:	5242                	lw	tp,48(sp)
     f96:	3238                	fld	fa4,96(a2)
     f98:	5f30                	lw	a2,120(a4)
     f9a:	4155                	li	sp,21
     f9c:	5452                	lw	s0,52(sp)
     f9e:	5f30                	lw	a2,120(a4)
     fa0:	4142                	lw	sp,16(sp)
     fa2:	28204553          	0x28204553
     fa6:	7830                	flw	fa2,112(s0)
     fa8:	6631                	lui	a2,0xc
     faa:	3035                	jal	7d6 <__Vectors-0x3ff82a>
     fac:	3030                	fld	fa2,96(s0)
     fae:	3030                	fld	fa2,96(s0)
     fb0:	4c55                	li	s8,21
     fb2:	0029                	c.nop	10
     fb4:	5f5f 4c46 3354      	0x33544c465f5f
     fba:	5832                	lw	a6,44(sp)
     fbc:	4d5f 4e49 5f5f      	0x5f5f4e494d5f
     fc2:	3220                	fld	fs0,96(a2)
     fc4:	322e                	fld	ft4,232(sp)
     fc6:	3532                	fld	fa0,296(sp)
     fc8:	3730                	fld	fa2,104(a4)
     fca:	38353833          	0x38353833
     fce:	3035                	jal	7fa <__Vectors-0x3ff806>
     fd0:	31303237          	lui	tp,0x31303
     fd4:	30333833          	0x30333833
     fd8:	3039                	jal	7e6 <__Vectors-0x3ff81a>
     fda:	3332                	fld	ft6,296(sp)
     fdc:	3732                	fld	fa4,296(sp)
     fde:	3731                	jal	eea <__Vectors-0x3ff116>
     fe0:	34323333          	0x34323333
     fe4:	3430                	fld	fa2,104(s0)
     fe6:	3630                	fld	fa2,104(a2)
     fe8:	2d65                	jal	16a0 <__Vectors-0x3fe960>
     fea:	46383033          	0x46383033
     fee:	00783233          	sltu	tp,a6,t2
     ff2:	5f5f 4c46 3354      	0x33544c465f5f
     ff8:	5832                	lw	a6,44(sp)
     ffa:	485f 5341 515f      	0x515f5341485f
    1000:	4955                	li	s2,21
    1002:	5445                	li	s0,-15
    1004:	4e5f 4e41 5f5f      	0x5f5f4e414e5f
    100a:	3120                	fld	fs0,96(a0)
    100c:	7200                	flw	fs0,32(a2)
    100e:	6765                	lui	a4,0x19
    1010:	775f3233          	0x775f3233
    1014:	6972                	flw	fs2,28(sp)
    1016:	6574                	flw	fa3,76(a0)
    1018:	7228                	flw	fa0,96(a2)
    101a:	762c                	flw	fa1,104(a2)
    101c:	2029                	jal	1026 <__Vectors-0x3fefda>
    101e:	6f64                	flw	fs1,92(a4)
    1020:	7b20                	flw	fs0,112(a4)
    1022:	2a20                	fld	fs0,80(a2)
    1024:	7228                	flw	fa0,96(a2)
    1026:	6765                	lui	a4,0x19
    1028:	745f3233          	0x745f3233
    102c:	2a20                	fld	fs0,80(a2)
    102e:	2829                	jal	1048 <__Vectors-0x3fefb8>
    1030:	2972                	fld	fs2,280(sp)
    1032:	3d20                	fld	fs0,120(a0)
    1034:	2820                	fld	fs0,80(s0)
    1036:	6975                	lui	s2,0x1d
    1038:	746e                	flw	fs0,248(sp)
    103a:	745f3233          	0x745f3233
    103e:	2829                	jal	1058 <__Vectors-0x3fefa8>
    1040:	2976                	fld	fs2,344(sp)
    1042:	207d203b          	0x207d203b
    1046:	6c696877          	0x6c696877
    104a:	2865                	jal	1102 <__Vectors-0x3feefe>
    104c:	2930                	fld	fa2,80(a0)
    104e:	5f00                	lw	s0,56(a4)
    1050:	725f 7369 7663      	0x76637369725f
    1056:	665f 6f6c 7461      	0x74616f6c665f
    105c:	615f 6962 735f      	0x735f6962615f
    1062:	2074666f          	jal	a2,47a68 <__Vectors-0x3b8598>
    1066:	0031                	c.nop	12
    1068:	5f5f 4347 5f43      	0x5f4343475f5f
    106e:	5441                	li	s0,-16
    1070:	43494d4f          	fnmadd.d	fs10,fs2,fs4,fs0,rmm
    1074:	435f 4148 5f52      	0x5f524148435f
    107a:	4f4c                	lw	a1,28(a4)
    107c:	465f4b43          	fmadd.q	fs6,ft10,ft5,fs0,rmm
    1080:	4552                	lw	a0,20(sp)
    1082:	2045                	jal	1122 <__Vectors-0x3feede>
    1084:	0031                	c.nop	12
    1086:	5f5f 524f 4544      	0x4544524f5f5f
    108c:	5f52                	lw	t5,52(sp)
    108e:	4942                	lw	s2,16(sp)
    1090:	4e455f47          	fmsub.q	ft10,fa0,ft4,fs1,unknown
    1094:	4944                	lw	s1,20(a0)
    1096:	4e41                	li	t3,16
    1098:	5f5f 3420 3233      	0x323334205f5f
    109e:	0031                	c.nop	12
    10a0:	5f5f 4843 5241      	0x524148435f5f
    10a6:	3631                	jal	bb2 <__Vectors-0x3ff44e>
    10a8:	545f 5059 5f45      	0x5f455059545f
    10ae:	205f 6873 726f      	0x726f6873205f
    10b4:	2074                	fld	fa3,192(s0)
    10b6:	6e75                	lui	t3,0x1d
    10b8:	6e676973          	csrrsi	s2,0x6e6,14
    10bc:	6465                	lui	s0,0x19
    10be:	6920                	flw	fs0,80(a0)
    10c0:	746e                	flw	fs0,248(sp)
    10c2:	7200                	flw	fs0,32(a2)
    10c4:	6765                	lui	a4,0x19
    10c6:	745f3233          	0x745f3233
    10ca:	5f00                	lw	s0,56(a4)
    10cc:	495f 544e 414d      	0x414d544e495f
    10d2:	5f58                	lw	a4,60(a4)
    10d4:	5954                	lw	a3,52(a0)
    10d6:	4550                	lw	a2,12(a0)
    10d8:	5f5f 6c20 6e6f      	0x6e6f6c205f5f
    10de:	6f6c2067          	0x6f6c2067
    10e2:	676e                	flw	fa4,216(sp)
    10e4:	6920                	flw	fs0,80(a0)
    10e6:	746e                	flw	fs0,248(sp)
    10e8:	5f00                	lw	s0,56(a4)
    10ea:	475f 4343 415f      	0x415f4343475f
    10f0:	4f54                	lw	a3,28(a4)
    10f2:	494d                	li	s2,19
    10f4:	4e495f43          	fmadd.q	ft10,fs2,ft4,fs1,unknown
    10f8:	5f54                	lw	a3,60(a4)
    10fa:	4f4c                	lw	a1,28(a4)
    10fc:	465f4b43          	fmadd.q	fs6,ft10,ft5,fs0,rmm
    1100:	4552                	lw	a0,20(sp)
    1102:	2045                	jal	11a2 <__Vectors-0x3fee5e>
    1104:	0031                	c.nop	12
    1106:	5f5f 4953 455a      	0x455a49535f5f
    110c:	535f464f          	fnmadd.d	fa2,ft10,fs5,fa0,rmm
    1110:	4f48                	lw	a0,28(a4)
    1112:	5452                	lw	s0,52(sp)
    1114:	5f5f 3220 5f00      	0x5f0032205f5f
    111a:	465f 544c 4d5f      	0x4d5f544c465f
    1120:	4e49                	li	t3,18
    1122:	5f5f 3120 312e      	0x312e31205f5f
    1128:	39343537          	lui	a0,0x39343
    112c:	3334                	fld	fa3,96(a4)
    112e:	3035                	jal	95a <__Vectors-0x3ff6a6>
    1130:	3238                	fld	fa4,96(a2)
    1132:	3232                	fld	ft4,296(sp)
    1134:	3738                	fld	fa4,104(a4)
    1136:	3035                	jal	962 <__Vectors-0x3ff69e>
    1138:	38363937          	lui	s2,0x38363
    113c:	35363337          	lui	t1,0x35363
    1140:	32323733          	0x32323733
    1144:	3232                	fld	ft4,296(sp)
    1146:	3534                	fld	fa3,104(a0)
    1148:	3836                	fld	fa6,360(sp)
    114a:	2d65                	jal	1802 <__Vectors-0x3fe7fe>
    114c:	00463833          	sltu	a6,a2,tp
    1150:	4258                	lw	a4,4(a2)
    1152:	3852                	fld	fa6,304(sp)
    1154:	3032                	fld	ft0,296(sp)
    1156:	535f 4354 425f      	0x425f4354535f
    115c:	5341                	li	t1,-16
    115e:	2045                	jal	11fe <__Vectors-0x3fee02>
    1160:	3028                	fld	fa0,96(s0)
    1162:	3178                	fld	fa4,224(a0)
    1164:	3266                	fld	ft4,120(sp)
    1166:	3030                	fld	fa2,96(s0)
    1168:	3030                	fld	fa2,96(s0)
    116a:	5530                	lw	a2,104(a0)
    116c:	294c                	fld	fa1,144(a0)
    116e:	5f00                	lw	s0,56(a4)
    1170:	465f 544c 3436      	0x3436544c465f
    1176:	485f 5341 495f      	0x495f5341485f
    117c:	464e                	lw	a2,208(sp)
    117e:	4e49                	li	t3,18
    1180:	5449                	li	s0,-14
    1182:	5f59                	li	t5,-10
    1184:	205f 0031 5f5f      	0x5f5f0031205f
    118a:	4e49                	li	t3,18
    118c:	3154                	fld	fa3,160(a0)
    118e:	5f36                	lw	t5,108(sp)
    1190:	29632843          	fmadd.s	fa6,ft6,fs6,ft5,rdn
    1194:	6320                	flw	fs0,64(a4)
    1196:	5f00                	lw	s0,56(a4)
    1198:	465f 544c 3436      	0x3436544c465f
    119e:	5f58                	lw	a4,60(a4)
    11a0:	4148                	lw	a0,4(a0)
    11a2:	4e495f53          	0x4e495f53
    11a6:	4946                	lw	s2,80(sp)
    11a8:	494e                	lw	s2,208(sp)
    11aa:	5954                	lw	a3,52(a0)
    11ac:	5f5f 3120 5f00      	0x5f0031205f5f
    11b2:	465f 544c 4d5f      	0x4d5f544c465f
    11b8:	5841                	li	a6,-16
    11ba:	455f 5058 5f5f      	0x5f5f5058455f
    11c0:	3120                	fld	fs0,96(a0)
    11c2:	3832                	fld	fa6,296(sp)
    11c4:	5f00                	lw	s0,56(a4)
    11c6:	445f 4c42 485f      	0x485f4c42445f
    11cc:	5341                	li	t1,-16
    11ce:	445f 4e45 524f      	0x524f4e45445f
    11d4:	5f4d                	li	t5,-13
    11d6:	205f 0031 5f5f      	0x5f5f0031205f
    11dc:	4c46                	lw	s8,80(sp)
    11de:	3654                	fld	fa3,168(a2)
    11e0:	5834                	lw	a3,112(s0)
    11e2:	445f 4e45 524f      	0x524f4e45445f
    11e8:	5f4d                	li	t5,-13
    11ea:	494d                	li	s2,19
    11ec:	5f4e                	lw	t5,240(sp)
    11ee:	205f 2e36 3734      	0x37342e36205f
    11f4:	3135                	jal	e20 <__Vectors-0x3ff1e0>
    11f6:	31313537          	lui	a0,0x31313
    11fa:	3439                	jal	c08 <__Vectors-0x3ff3f8>
    11fc:	32303833          	0x32303833
    1200:	3135                	jal	e2c <__Vectors-0x3ff1d4>
    1202:	3031                	jal	a0e <__Vectors-0x3ff5f2>
    1204:	3239                	jal	b12 <__Vectors-0x3ff4ee>
    1206:	3434                	fld	fa3,104(s0)
    1208:	35393833          	0x35393833
    120c:	3238                	fld	fa4,96(a2)
    120e:	3732                	fld	fa4,296(sp)
    1210:	3436                	fld	fs0,360(sp)
    1212:	3536                	fld	fa0,360(sp)
    1214:	6535                	lui	a0,0xd
    1216:	342d                	jal	c40 <__Vectors-0x3ff3c0>
    1218:	3639                	jal	d26 <__Vectors-0x3ff2da>
    121a:	4636                	lw	a2,76(sp)
    121c:	3436                	fld	fs0,360(sp)
    121e:	0078                	addi	a4,sp,12
    1220:	5f5f 4c46 3154      	0x31544c465f5f
    1226:	3832                	fld	fa6,296(sp)
    1228:	4d5f 4e49 315f      	0x315f4e494d5f
    122e:	5f30                	lw	a2,120(a4)
    1230:	5845                	li	a6,-15
    1232:	5f50                	lw	a2,60(a4)
    1234:	205f 2d28 3934      	0x39342d28205f
    123a:	00293133          	sltu	sp,s2,sp
    123e:	5f5f 4e49 5f54      	0x5f544e495f5f
    1244:	414d                	li	sp,19
    1246:	5f58                	lw	a4,60(a4)
    1248:	205f 7830 6637      	0x66377830205f
    124e:	6666                	flw	fa2,88(sp)
    1250:	6666                	flw	fa2,88(sp)
    1252:	6666                	flw	fa2,88(sp)
    1254:	5f00                	lw	s0,56(a4)
    1256:	465f 544c 3231      	0x3231544c465f
    125c:	5f38                	lw	a4,120(a4)
    125e:	4148                	lw	a0,4(a0)
    1260:	45445f53          	0x45445f53
    1264:	4f4e                	lw	t5,208(sp)
    1266:	4d52                	lw	s10,20(sp)
    1268:	5f5f 3120 5f00      	0x5f0031205f5f
    126e:	575f 4843 5241      	0x52414843575f
    1274:	545f 5059 5f45      	0x5f455059545f
    127a:	205f 6e69 0074      	0x746e69205f
    1280:	5f5f 4353 4148      	0x414843535f5f
    1286:	5f52                	lw	t5,52(sp)
    1288:	414d                	li	sp,19
    128a:	5f58                	lw	a4,60(a4)
    128c:	205f 7830 6637      	0x66377830205f
    1292:	7200                	flw	fs0,32(a2)
    1294:	6765                	lui	a4,0x19
    1296:	645f 7461 0061      	0x617461645f
    129c:	5f5f 4e47 4355      	0x43554e475f5f
    12a2:	505f 5441 4843      	0x48435441505f
    12a8:	454c                	lw	a1,12(a0)
    12aa:	4556                	lw	a0,84(sp)
    12ac:	5f4c                	lw	a1,60(a4)
    12ae:	205f 0030 5f5f      	0x5f5f0030205f
    12b4:	5441                	li	s0,-16
    12b6:	43494d4f          	fnmadd.d	fs10,fs2,fs4,fs0,rmm
    12ba:	525f 4c45 4145      	0x41454c45525f
    12c0:	33204553          	0x33204553
    12c4:	5f00                	lw	s0,56(a4)
    12c6:	465f 544c 3233      	0x3233544c465f
    12cc:	4d5f 4e49 315f      	0x315f4e494d5f
    12d2:	5f30                	lw	a2,120(a4)
    12d4:	5845                	li	a6,-15
    12d6:	5f50                	lw	a2,60(a4)
    12d8:	205f 2d28 3733      	0x37332d28205f
    12de:	0029                	c.nop	10
    12e0:	5f5f 4244 5f4c      	0x5f4c42445f5f
    12e6:	4544                	lw	s1,12(a0)
    12e8:	414d4943          	fmadd.s	fs2,fs10,fs4,fs0,rmm
    12ec:	5f4c                	lw	a1,60(a4)
    12ee:	4944                	lw	s1,20(a0)
    12f0:	205f5f47          	fmsub.s	ft10,ft10,ft5,ft4,unknown
    12f4:	3731                	jal	1200 <__Vectors-0x3fee00>
    12f6:	5f00                	lw	s0,56(a4)
    12f8:	445f 4c42 445f      	0x445f4c42445f
    12fe:	4749                	li	a4,18
    1300:	5f5f 3120 0035      	0x3531205f5f
    1306:	6572                	flw	fa0,28(sp)
    1308:	5f363167          	0x5f363167
    130c:	74697277          	0x74697277
    1310:	2865                	jal	13c8 <__Vectors-0x3fec38>
    1312:	2c72                	fld	fs8,280(sp)
    1314:	2976                	fld	fs2,344(sp)
    1316:	6420                	flw	fs0,72(s0)
    1318:	207b206f          	j	b3d1e <__Vectors-0x34c2e2>
    131c:	282a                	fld	fa6,136(sp)
    131e:	6572                	flw	fa0,28(sp)
    1320:	5f363167          	0x5f363167
    1324:	2074                	fld	fa3,192(s0)
    1326:	292a                	fld	fs2,136(sp)
    1328:	7228                	flw	fa0,96(a2)
    132a:	2029                	jal	1334 <__Vectors-0x3feccc>
    132c:	203d                	jal	135a <__Vectors-0x3feca6>
    132e:	7528                	flw	fa0,104(a0)
    1330:	6e69                	lui	t3,0x1a
    1332:	3174                	fld	fa3,224(a0)
    1334:	5f36                	lw	t5,108(sp)
    1336:	2974                	fld	fa3,208(a0)
    1338:	7628                	flw	fa0,104(a2)
    133a:	3b29                	jal	1054 <__Vectors-0x3fefac>
    133c:	7d20                	flw	fs0,120(a0)
    133e:	7720                	flw	fs0,104(a4)
    1340:	6968                	flw	fa0,84(a0)
    1342:	656c                	flw	fa1,76(a0)
    1344:	3028                	fld	fa0,96(s0)
    1346:	0029                	c.nop	10
    1348:	70617773          	csrrci	a4,0x706,2
    134c:	7828                	flw	fa0,112(s0)
    134e:	792c                	flw	fa1,112(a0)
    1350:	742c                	flw	fa1,104(s0)
    1352:	2029                	jal	135c <__Vectors-0x3feca4>
    1354:	6f64                	flw	fs1,92(a4)
    1356:	7b20                	flw	fs0,112(a4)
    1358:	7428                	flw	fa0,104(s0)
    135a:	3d29                	jal	1174 <__Vectors-0x3fee8c>
    135c:	7828                	flw	fa0,112(s0)
    135e:	3b29                	jal	1078 <__Vectors-0x3fef88>
    1360:	7828                	flw	fa0,112(s0)
    1362:	3d29                	jal	117c <__Vectors-0x3fee84>
    1364:	7928                	flw	fa0,112(a0)
    1366:	3b29                	jal	1080 <__Vectors-0x3fef80>
    1368:	7928                	flw	fa0,112(a0)
    136a:	3d29                	jal	1184 <__Vectors-0x3fee7c>
    136c:	7428                	flw	fa0,104(s0)
    136e:	3b29                	jal	1088 <__Vectors-0x3fef78>
    1370:	207d                	jal	141e <__Vectors-0x3febe2>
    1372:	6c696877          	0x6c696877
    1376:	2865                	jal	142e <__Vectors-0x3febd2>
    1378:	2930                	fld	fa2,80(a0)
    137a:	5f00                	lw	s0,56(a4)
    137c:	465f 544c 445f      	0x445f544c465f
    1382:	4345                	li	t1,17
    1384:	4d49                	li	s10,18
    1386:	4c41                	li	s8,16
    1388:	445f 4749 5f5f      	0x5f5f4749445f
    138e:	3920                	fld	fs0,112(a0)
    1390:	5f00                	lw	s0,56(a4)
    1392:	495f 544e 465f      	0x465f544e495f
    1398:	5341                	li	t1,-16
    139a:	3654                	fld	fa3,168(a2)
    139c:	5f34                	lw	a3,120(a4)
    139e:	5954                	lw	a3,52(a0)
    13a0:	4550                	lw	a2,12(a0)
    13a2:	5f5f 6c20 6e6f      	0x6e6f6c205f5f
    13a8:	6f6c2067          	0x6f6c2067
    13ac:	676e                	flw	fa4,216(sp)
    13ae:	6920                	flw	fs0,80(a0)
    13b0:	746e                	flw	fs0,248(sp)
    13b2:	5f00                	lw	s0,56(a4)
    13b4:	445f 4345 3231      	0x32314345445f
    13ba:	5f38                	lw	a4,120(a4)
    13bc:	494d                	li	s2,19
    13be:	5f4e                	lw	t5,240(sp)
    13c0:	205f 4531 362d      	0x362d4531205f
    13c6:	3431                	jal	dd2 <__Vectors-0x3ff22e>
    13c8:	004c4433          	xor	s0,s8,tp
    13cc:	5f5f 4942 4747      	0x474749425f5f
    13d2:	5345                	li	t1,-15
    13d4:	5f54                	lw	a3,60(a4)
    13d6:	4c41                	li	s8,16
    13d8:	4749                	li	a4,18
    13da:	4d4e                	lw	s10,208(sp)
    13dc:	4e45                	li	t3,17
    13de:	5f54                	lw	a3,60(a4)
    13e0:	205f 3631 5f00      	0x5f003631205f
    13e6:	535f 5a49 4f45      	0x4f455a49535f
    13ec:	5f46                	lw	t5,112(sp)
    13ee:	4e49                	li	t3,18
    13f0:	5f54                	lw	a3,60(a4)
    13f2:	205f 0034 5f5f      	0x5f5f0034205f
    13f8:	4955                	li	s2,21
    13fa:	544e                	lw	s0,240(sp)
    13fc:	4c5f 4145 5453      	0x545341454c5f
    1402:	5f38                	lw	a4,120(a4)
    1404:	414d                	li	sp,19
    1406:	5f58                	lw	a4,60(a4)
    1408:	205f 7830 6666      	0x66667830205f
    140e:	5f00                	lw	s0,56(a4)
    1410:	465f 544c 3233      	0x3233544c465f
    1416:	5f58                	lw	a4,60(a4)
    1418:	414d                	li	sp,19
    141a:	5f58                	lw	a4,60(a4)
    141c:	3031                	jal	c28 <__Vectors-0x3ff3d8>
    141e:	455f 5058 5f5f      	0x5f5f5058455f
    1424:	3320                	fld	fs0,96(a4)
    1426:	3830                	fld	fa2,112(s0)
    1428:	5f00                	lw	s0,56(a4)
    142a:	445f 4345 3231      	0x32314345445f
    1430:	5f38                	lw	a4,120(a4)
    1432:	414d                	li	sp,19
    1434:	5f58                	lw	a4,60(a4)
    1436:	5845                	li	a6,-15
    1438:	5f50                	lw	a2,60(a4)
    143a:	205f 3136 3534      	0x35343136205f
    1440:	5f00                	lw	s0,56(a4)
    1442:	495f 544e 3631      	0x3631544e495f
    1448:	4d5f 5841 5f5f      	0x5f5f58414d5f
    144e:	3020                	fld	fs0,96(s0)
    1450:	3778                	fld	fa4,232(a4)
    1452:	6666                	flw	fa2,88(sp)
    1454:	0066                	c.slli	zero,0x19
    1456:	4258                	lw	a4,4(a2)
    1458:	3852                	fld	fa6,304(sp)
    145a:	3032                	fld	ft0,296(sp)
    145c:	495f 4332 5f53      	0x5f534332495f
    1462:	4142                	lw	sp,16(sp)
    1464:	28204553          	0x28204553
    1468:	7830                	flw	fa2,112(s0)
    146a:	6631                	lui	a2,0xc
    146c:	3034                	fld	fa3,96(s0)
    146e:	3030                	fld	fa2,96(s0)
    1470:	3030                	fld	fa2,96(s0)
    1472:	4c55                	li	s8,21
    1474:	0029                	c.nop	10
    1476:	5f5f 6972 6373      	0x637369725f5f
    147c:	5f76                	lw	t5,124(sp)
    147e:	706d6f63          	bltu	s10,t1,1b9c <__Vectors-0x3fe464>
    1482:	6572                	flw	fa0,28(sp)
    1484:	64657373          	csrrci	t1,0x646,10
    1488:	3120                	fld	fs0,96(a0)
    148a:	5f00                	lw	s0,56(a4)
    148c:	465f 544c 3231      	0x3231544c465f
    1492:	5f38                	lw	a4,120(a4)
    1494:	414d                	li	sp,19
    1496:	5f58                	lw	a4,60(a4)
    1498:	5845                	li	a6,-15
    149a:	5f50                	lw	a2,60(a4)
    149c:	205f 3631 3833      	0x38333631205f
    14a2:	0034                	addi	a3,sp,8
    14a4:	4258                	lw	a4,4(a2)
    14a6:	3852                	fld	fa6,304(sp)
    14a8:	3032                	fld	ft0,296(sp)
    14aa:	535f 4950 425f      	0x425f4950535f
    14b0:	5341                	li	t1,-16
    14b2:	2045                	jal	1552 <__Vectors-0x3feaae>
    14b4:	3028                	fld	fa0,96(s0)
    14b6:	3078                	fld	fa4,224(s0)
    14b8:	3030                	fld	fa2,96(s0)
    14ba:	3030                	fld	fa2,96(s0)
    14bc:	3030                	fld	fa2,96(s0)
    14be:	5530                	lw	a2,104(a0)
    14c0:	294c                	fld	fa1,144(a0)
    14c2:	5f00                	lw	s0,56(a4)
    14c4:	465f 544c 3436      	0x3436544c465f
    14ca:	5f58                	lw	a4,60(a4)
    14cc:	414d                	li	sp,19
    14ce:	5f58                	lw	a4,60(a4)
    14d0:	205f 2e31 3831      	0x38312e31205f
    14d6:	3739                	jal	13e4 <__Vectors-0x3fec1c>
    14d8:	39343133          	0x39343133
    14dc:	3335                	jal	1208 <__Vectors-0x3fedf8>
    14de:	3735                	jal	140a <__Vectors-0x3febf6>
    14e0:	3332                	fld	ft6,296(sp)
    14e2:	3731                	jal	13ee <__Vectors-0x3fec12>
    14e4:	3536                	fld	fa0,360(sp)
    14e6:	3830                	fld	fa2,112(s0)
    14e8:	3735                	jal	1414 <__Vectors-0x3febec>
    14ea:	3935                	jal	1126 <__Vectors-0x3feeda>
    14ec:	36363233          	0x36363233
    14f0:	3832                	fld	fa6,296(sp)
    14f2:	3030                	fld	fa2,96(s0)
    14f4:	65323037          	lui	zero,0x65323
    14f8:	3339342b          	0x3339342b
    14fc:	4632                	lw	a2,12(sp)
    14fe:	3436                	fld	fs0,360(sp)
    1500:	0078                	addi	a4,sp,12
    1502:	5f5f 4e49 5f54      	0x5f544e495f5f
    1508:	54444957          	0x54444957
    150c:	5f48                	lw	a0,60(a4)
    150e:	205f 3233 5f00      	0x5f003233205f
    1514:	465f 544c 4d5f      	0x4d5f544c465f
    151a:	4e41                	li	t3,16
    151c:	5f54                	lw	a3,60(a4)
    151e:	4944                	lw	s1,20(a0)
    1520:	205f5f47          	fmsub.s	ft10,ft10,ft5,ft4,unknown
    1524:	3432                	fld	fs0,296(sp)
    1526:	5f00                	lw	s0,56(a4)
    1528:	495f 544e 414d      	0x414d544e495f
    152e:	5f58                	lw	a4,60(a4)
    1530:	54444957          	0x54444957
    1534:	5f48                	lw	a0,60(a4)
    1536:	205f 3436 5f00      	0x5f003436205f
    153c:	435f 4148 5f52      	0x5f524148435f
    1542:	4e55                	li	t3,21
    1544:	4e474953          	0x4e474953
    1548:	4445                	li	s0,17
    154a:	5f5f 3120 5f00      	0x5f0031205f5f
    1550:	495f 544e 465f      	0x465f544e495f
    1556:	5341                	li	t1,-16
    1558:	3854                	fld	fa3,176(s0)
    155a:	545f 5059 5f45      	0x5f455059545f
    1560:	205f 6e69 0074      	0x746e69205f
    1566:	5f5f 4e47 4355      	0x43554e475f5f
    156c:	5f5f 3820 5f00      	0x5f0038205f5f
    1572:	475f 4343 415f      	0x415f4343475f
    1578:	4f54                	lw	a3,28(a4)
    157a:	494d                	li	s2,19
    157c:	48535f43          	fmadd.s	ft10,ft6,ft5,fs1,unknown
    1580:	5f54524f          	fnmadd.q	ft4,fs0,fs5,fa1,unknown
    1584:	4f4c                	lw	a1,28(a4)
    1586:	465f4b43          	fmadd.q	fs6,ft10,ft5,fs0,rmm
    158a:	4552                	lw	a0,20(sp)
    158c:	2045                	jal	162c <__Vectors-0x3fe9d4>
    158e:	0031                	c.nop	12
    1590:	5f5f 4955 544e      	0x544e49555f5f
    1596:	4d5f3233          	0x4d5f3233
    159a:	5841                	li	a6,-16
    159c:	5f5f 3020 6678      	0x667830205f5f
    15a2:	6666                	flw	fa2,88(sp)
    15a4:	6666                	flw	fa2,88(sp)
    15a6:	6666                	flw	fa2,88(sp)
    15a8:	5566                	lw	a0,120(sp)
    15aa:	004c                	addi	a1,sp,4
    15ac:	5f5f 4544 3643      	0x364345445f5f
    15b2:	5f34                	lw	a3,120(a4)
    15b4:	414d                	li	sp,19
    15b6:	5f58                	lw	a4,60(a4)
    15b8:	205f 2e39 3939      	0x39392e39205f
    15be:	3939                	jal	11dc <__Vectors-0x3fee24>
    15c0:	3939                	jal	11de <__Vectors-0x3fee22>
    15c2:	3939                	jal	11e0 <__Vectors-0x3fee20>
    15c4:	3939                	jal	11e2 <__Vectors-0x3fee1e>
    15c6:	3939                	jal	11e4 <__Vectors-0x3fee1c>
    15c8:	3939                	jal	11e6 <__Vectors-0x3fee1a>
    15ca:	4539                	li	a0,14
    15cc:	44343833          	0x44343833
    15d0:	0044                	addi	s1,sp,4
    15d2:	5f5f 4e49 5f54      	0x5f544e495f5f
    15d8:	4146                	lw	sp,80(sp)
    15da:	34365453          	0x34365453
    15de:	4d5f 5841 5f5f      	0x5f5f58414d5f
    15e4:	3020                	fld	fs0,96(s0)
    15e6:	3778                	fld	fa4,232(a4)
    15e8:	6666                	flw	fa2,88(sp)
    15ea:	6666                	flw	fa2,88(sp)
    15ec:	6666                	flw	fa2,88(sp)
    15ee:	6666                	flw	fa2,88(sp)
    15f0:	6666                	flw	fa2,88(sp)
    15f2:	6666                	flw	fa2,88(sp)
    15f4:	6666                	flw	fa2,88(sp)
    15f6:	4c66                	lw	s8,88(sp)
    15f8:	004c                	addi	a1,sp,4
    15fa:	5f5f 4c46 3354      	0x33544c465f5f
    1600:	5832                	lw	a6,44(sp)
    1602:	4d5f 4e41 5f54      	0x5f544e414d5f
    1608:	4944                	lw	s1,20(a0)
    160a:	205f5f47          	fmsub.s	ft10,ft10,ft5,ft4,unknown
    160e:	3335                	jal	133a <__Vectors-0x3fecc6>
    1610:	7200                	flw	fs0,32(a2)
    1612:	6765                	lui	a4,0x19
    1614:	735f3233          	0x735f3233
    1618:	7465                	lui	s0,0xffff9
    161a:	7228                	flw	fa0,96(a2)
    161c:	6d2c                	flw	fa1,88(a0)
    161e:	2029                	jal	1628 <__Vectors-0x3fe9d8>
    1620:	6572                	flw	fa0,28(sp)
    1622:	5f323367          	0x5f323367
    1626:	74697277          	0x74697277
    162a:	2865                	jal	16e2 <__Vectors-0x3fe91e>
    162c:	2c72                	fld	fs8,280(sp)
    162e:	7220                	flw	fs0,96(a2)
    1630:	6765                	lui	a4,0x19
    1632:	725f3233          	0x725f3233
    1636:	6165                	addi	sp,sp,112
    1638:	2864                	fld	fs1,208(s0)
    163a:	2972                	fld	fs2,280(sp)
    163c:	7c20                	flw	fs0,120(s0)
    163e:	2820                	fld	fs0,80(s0)
    1640:	296d                	jal	1afa <__Vectors-0x3fe506>
    1642:	0029                	c.nop	10
    1644:	5f5f 4e49 5f54      	0x5f544e495f5f
    164a:	454c                	lw	a1,12(a0)
    164c:	5341                	li	t1,-16
    164e:	3854                	fld	fa3,176(s0)
    1650:	575f 4449 4854      	0x48544449575f
    1656:	5f5f 3820 5f00      	0x5f0038205f5f
    165c:	555f 4e49 5f54      	0x5f544e49555f
    1662:	454c                	lw	a1,12(a0)
    1664:	5341                	li	t1,-16
    1666:	3154                	fld	fa3,160(a0)
    1668:	5f36                	lw	t5,108(sp)
    166a:	5954                	lw	a3,52(a0)
    166c:	4550                	lw	a2,12(a0)
    166e:	5f5f 7320 6f68      	0x6f6873205f5f
    1674:	7472                	flw	fs0,60(sp)
    1676:	7520                	flw	fs0,104(a0)
    1678:	736e                	flw	ft6,248(sp)
    167a:	6769                	lui	a4,0x1a
    167c:	656e                	flw	fa0,216(sp)
    167e:	2064                	fld	fs1,192(s0)
    1680:	6e69                	lui	t3,0x1a
    1682:	0074                	addi	a3,sp,12
    1684:	5f5f 4244 5f4c      	0x5f4c42445f5f
    168a:	414d                	li	sp,19
    168c:	5f58                	lw	a4,60(a4)
    168e:	5845                	li	a6,-15
    1690:	5f50                	lw	a2,60(a4)
    1692:	205f 3031 3432      	0x34323031205f
    1698:	5f00                	lw	s0,56(a4)
    169a:	555f 4e49 5054      	0x50544e49555f
    16a0:	5254                	lw	a3,36(a2)
    16a2:	4d5f 5841 5f5f      	0x5f5f58414d5f
    16a8:	3020                	fld	fs0,96(s0)
    16aa:	6678                	flw	fa4,76(a2)
    16ac:	6666                	flw	fa2,88(sp)
    16ae:	6666                	flw	fa2,88(sp)
    16b0:	6666                	flw	fa2,88(sp)
    16b2:	5566                	lw	a0,120(sp)
    16b4:	5800                	lw	s0,48(s0)
    16b6:	5242                	lw	tp,48(sp)
    16b8:	3238                	fld	fa4,96(a2)
    16ba:	5f30                	lw	a2,120(a4)
    16bc:	4155                	li	sp,21
    16be:	5452                	lw	s0,52(sp)
    16c0:	5f31                	li	t5,-20
    16c2:	4142                	lw	sp,16(sp)
    16c4:	28204553          	0x28204553
    16c8:	7830                	flw	fa2,112(s0)
    16ca:	6631                	lui	a2,0xc
    16cc:	3036                	fld	ft0,360(sp)
    16ce:	3030                	fld	fa2,96(s0)
    16d0:	3030                	fld	fa2,96(s0)
    16d2:	4c55                	li	s8,21
    16d4:	0029                	c.nop	10
    16d6:	5f5f 4347 5f43      	0x5f4343475f5f
    16dc:	4549                	li	a0,18
    16de:	35355f43          	fmadd.h	ft10,fa0,fs3,ft6,unknown
    16e2:	5f39                	li	t5,-18
    16e4:	504d4f43          	fmadd.s	ft10,fs10,ft4,fa0,rmm
    16e8:	454c                	lw	a1,12(a0)
    16ea:	2058                	fld	fa4,128(s0)
    16ec:	0030                	addi	a2,sp,8
    16ee:	5f5f 4c46 3354      	0x33544c465f5f
    16f4:	5832                	lw	a6,44(sp)
    16f6:	4d5f 5841 5f5f      	0x5f5f58414d5f
    16fc:	3120                	fld	fs0,96(a0)
    16fe:	372e                	fld	fa4,232(sp)
    1700:	3739                	jal	160e <__Vectors-0x3fe9f2>
    1702:	3936                	fld	fs2,360(sp)
    1704:	34333133          	0x34333133
    1708:	3638                	fld	fa4,104(a2)
    170a:	3332                	fld	ft6,296(sp)
    170c:	3531                	jal	1518 <__Vectors-0x3feae8>
    170e:	31383037          	lui	zero,0x31383
    1712:	3534                	fld	fa3,104(a0)
    1714:	3732                	fld	fa4,296(sp)
    1716:	3234                	fld	fa3,96(a2)
    1718:	31333733          	0x31333733
    171c:	33343037          	lui	zero,0x33343
    1720:	3735                	jal	164c <__Vectors-0x3fe9b4>
    1722:	2b65                	jal	1cda <__Vectors-0x3fe326>
    1724:	46383033          	0x46383033
    1728:	00783233          	sltu	tp,a6,t2
    172c:	5f5f 5441 4d4f      	0x4d4f54415f5f
    1732:	4349                	li	t1,18
    1734:	415f 5143 4955      	0x49555143415f
    173a:	4552                	lw	a0,20(sp)
    173c:	3220                	fld	fs0,96(a2)
    173e:	5f00                	lw	s0,56(a4)
    1740:	445f 4345 3436      	0x34364345445f
    1746:	455f 5350 4c49      	0x4c495350455f
    174c:	5f5f4e4f          	fnmadd.q	ft8,ft10,fs5,fa1,rmm
    1750:	3120                	fld	fs0,96(a0)
    1752:	2d45                	jal	1e02 <__Vectors-0x3fe1fe>
    1754:	3531                	jal	1560 <__Vectors-0x3feaa0>
    1756:	4444                	lw	s1,12(s0)
    1758:	5f00                	lw	s0,56(a4)
    175a:	465f 544c 3233      	0x3233544c465f
    1760:	445f 4345 4d49      	0x4d494345445f
    1766:	4c41                	li	s8,16
    1768:	445f 4749 5f5f      	0x5f5f4749445f
    176e:	3920                	fld	fs0,112(a0)
    1770:	5f00                	lw	s0,56(a4)
    1772:	555f 4e49 4d54      	0x4d544e49555f
    1778:	5841                	li	a6,-16
    177a:	4d5f 5841 5f5f      	0x5f5f58414d5f
    1780:	3020                	fld	fs0,96(s0)
    1782:	6678                	flw	fa4,76(a2)
    1784:	6666                	flw	fa2,88(sp)
    1786:	6666                	flw	fa2,88(sp)
    1788:	6666                	flw	fa2,88(sp)
    178a:	6666                	flw	fa2,88(sp)
    178c:	6666                	flw	fa2,88(sp)
    178e:	6666                	flw	fa2,88(sp)
    1790:	6666                	flw	fa2,88(sp)
    1792:	5566                	lw	a0,120(sp)
    1794:	4c4c                	lw	a1,28(s0)
    1796:	6d00                	flw	fs0,24(a0)
    1798:	6961                	lui	s2,0x18
    179a:	2e6e                	fld	ft8,216(sp)
    179c:	5f5f0063          	beq	t5,s5,1d7c <__Vectors-0x3fe284>
    17a0:	4544                	lw	s1,12(a0)
    17a2:	38323143          	fmadd.s	ft2,ft4,ft3,ft7,rup
    17a6:	455f 5350 4c49      	0x4c495350455f
    17ac:	5f5f4e4f          	fnmadd.q	ft8,ft10,fs5,fa1,rmm
    17b0:	3120                	fld	fs0,96(a0)
    17b2:	2d45                	jal	1e62 <__Vectors-0x3fe19e>
    17b4:	4c443333          	0x4c443333
    17b8:	5f00                	lw	s0,56(a4)
    17ba:	535f 5a49 4f45      	0x4f455a49535f
    17c0:	5f46                	lw	t5,112(sp)
    17c2:	5450                	lw	a2,44(s0)
    17c4:	4452                	lw	s0,20(sp)
    17c6:	4649                	li	a2,18
    17c8:	5f46                	lw	t5,112(sp)
    17ca:	5f54                	lw	a3,60(a4)
    17cc:	205f 0034 5f5f      	0x5f5f0034205f
    17d2:	4c46                	lw	s8,80(sp)
    17d4:	5f54                	lw	a3,60(a4)
    17d6:	414d                	li	sp,19
    17d8:	5f58                	lw	a4,60(a4)
    17da:	205f 2e33 3034      	0x30342e33205f
    17e0:	3832                	fld	fa6,296(sp)
    17e2:	3332                	fld	ft6,296(sp)
    17e4:	3634                	fld	fa3,104(a2)
    17e6:	3336                	fld	ft6,360(sp)
    17e8:	3538                	fld	fa4,104(a0)
    17ea:	3832                	fld	fa6,296(sp)
    17ec:	3538                	fld	fa4,104(a0)
    17ee:	3839                	jal	100c <__Vectors-0x3feff4>
    17f0:	3131                	jal	13fc <__Vectors-0x3fec04>
    17f2:	31343037          	lui	zero,0x31343
    17f6:	3338                	fld	fa4,96(a4)
    17f8:	3834                	fld	fa3,112(s0)
    17fa:	3534                	fld	fa3,104(a0)
    17fc:	3631                	jal	1308 <__Vectors-0x3fecf8>
    17fe:	3239                	jal	110c <__Vectors-0x3feef4>
    1800:	6535                	lui	a0,0xd
    1802:	4638332b          	0x4638332b
    1806:	5f00                	lw	s0,56(a4)
    1808:	535f 5a49 4f45      	0x4f455a49535f
    180e:	5f46                	lw	t5,112(sp)
    1810:	41484357          	0x41484357
    1814:	5f52                	lw	t5,52(sp)
    1816:	5f54                	lw	a3,60(a4)
    1818:	205f 0034 5f5f      	0x5f5f0034205f
    181e:	4c46                	lw	s8,80(sp)
    1820:	3354                	fld	fa3,160(a4)
    1822:	5832                	lw	a6,44(sp)
    1824:	445f 4345 4d49      	0x4d494345445f
    182a:	4c41                	li	s8,16
    182c:	445f 4749 5f5f      	0x5f5f4749445f
    1832:	3120                	fld	fs0,96(a0)
    1834:	5f5f0037          	lui	zero,0x5f5f0
    1838:	4556                	lw	a0,84(sp)
    183a:	5352                	lw	t1,52(sp)
    183c:	4f49                	li	t5,18
    183e:	5f4e                	lw	t5,240(sp)
    1840:	205f 3822 342e      	0x342e3822205f
    1846:	302e                	fld	ft0,232(sp)
    1848:	0022                	c.slli	zero,0x8
    184a:	5f5f 4544 3343      	0x334345445f5f
    1850:	5f32                	lw	t5,44(sp)
    1852:	494d                	li	s2,19
    1854:	5f4e                	lw	t5,240(sp)
    1856:	5845                	li	a6,-15
    1858:	5f50                	lw	a2,60(a4)
    185a:	205f 2d28 3439      	0x34392d28205f
    1860:	0029                	c.nop	10
    1862:	5f5f 4955 544e      	0x544e49555f5f
    1868:	465f 5341 3354      	0x33545341465f
    186e:	5f32                	lw	t5,44(sp)
    1870:	5954                	lw	a3,52(a0)
    1872:	4550                	lw	a2,12(a0)
    1874:	5f5f 7520 736e      	0x736e75205f5f
    187a:	6769                	lui	a4,0x1a
    187c:	656e                	flw	fa0,216(sp)
    187e:	2064                	fld	fs1,192(s0)
    1880:	6e69                	lui	t3,0x1a
    1882:	0074                	addi	a3,sp,12
    1884:	5f5f 6972 6373      	0x637369725f5f
    188a:	5f76                	lw	t5,124(sp)
    188c:	7478                	flw	fa4,108(s0)
    188e:	6568                	flw	fa0,76(a0)
    1890:	6461                	lui	s0,0x18
    1892:	3120                	fld	fs0,96(a0)
    1894:	5f00                	lw	s0,56(a4)
    1896:	465f 544c 3436      	0x3436544c465f
    189c:	4d5f 4e49 315f      	0x315f4e494d5f
    18a2:	5f30                	lw	a2,120(a4)
    18a4:	5845                	li	a6,-15
    18a6:	5f50                	lw	a2,60(a4)
    18a8:	205f 2d28 3033      	0x30332d28205f
    18ae:	5f002937          	lui	s2,0x5f002
    18b2:	445f 4345 3231      	0x32314345445f
    18b8:	5f38                	lw	a4,120(a4)
    18ba:	414d                	li	sp,19
    18bc:	5f58                	lw	a4,60(a4)
    18be:	205f 2e39 3939      	0x39392e39205f
    18c4:	3939                	jal	14e2 <__Vectors-0x3feb1e>
    18c6:	3939                	jal	14e4 <__Vectors-0x3feb1c>
    18c8:	3939                	jal	14e6 <__Vectors-0x3feb1a>
    18ca:	3939                	jal	14e8 <__Vectors-0x3feb18>
    18cc:	3939                	jal	14ea <__Vectors-0x3feb16>
    18ce:	3939                	jal	14ec <__Vectors-0x3feb14>
    18d0:	3939                	jal	14ee <__Vectors-0x3feb12>
    18d2:	3939                	jal	14f0 <__Vectors-0x3feb10>
    18d4:	3939                	jal	14f2 <__Vectors-0x3feb0e>
    18d6:	3939                	jal	14f4 <__Vectors-0x3feb0c>
    18d8:	3939                	jal	14f6 <__Vectors-0x3feb0a>
    18da:	3939                	jal	14f8 <__Vectors-0x3feb08>
    18dc:	3939                	jal	14fa <__Vectors-0x3feb06>
    18de:	3939                	jal	14fc <__Vectors-0x3feb04>
    18e0:	3939                	jal	14fe <__Vectors-0x3feb02>
    18e2:	4539                	li	a0,14
    18e4:	3136                	fld	ft2,360(sp)
    18e6:	3434                	fld	fa3,104(s0)
    18e8:	4c44                	lw	s1,28(s0)
    18ea:	5f00                	lw	s0,56(a4)
    18ec:	725f 7369 7663      	0x76637369725f
    18f2:	335f 6532 3120      	0x31206532335f
    18f8:	5f00                	lw	s0,56(a4)
    18fa:	555f 4e49 3354      	0x33544e49555f
    1900:	5f32                	lw	t5,44(sp)
    1902:	5954                	lw	a3,52(a0)
    1904:	4550                	lw	a2,12(a0)
    1906:	5f5f 6c20 6e6f      	0x6e6f6c205f5f
    190c:	6e752067          	0x6e752067
    1910:	6e676973          	csrrsi	s2,0x6e6,14
    1914:	6465                	lui	s0,0x19
    1916:	6920                	flw	fs0,80(a0)
    1918:	746e                	flw	fs0,248(sp)
    191a:	5f00                	lw	s0,56(a4)
    191c:	555f 4e49 3354      	0x33544e49555f
    1922:	5f32                	lw	t5,44(sp)
    1924:	29632843          	fmadd.s	fa6,ft6,fs6,ft5,rdn
    1928:	6320                	flw	fs0,64(a4)
    192a:	2320                	fld	fs0,64(a4)
    192c:	4c552023          	sw	t0,1216(a0) # d4c0 <__Vectors-0x3f2b40>
    1930:	5800                	lw	s0,48(s0)
    1932:	5242                	lw	tp,48(sp)
    1934:	3238                	fld	fa4,96(a2)
    1936:	5f30                	lw	a2,120(a4)
    1938:	3249                	jal	12ba <__Vectors-0x3fed46>
    193a:	425f4d43          	fmadd.d	fs10,ft10,ft5,fs0,rmm
    193e:	5341                	li	t1,-16
    1940:	2045                	jal	19e0 <__Vectors-0x3fe620>
    1942:	3028                	fld	fa0,96(s0)
    1944:	3178                	fld	fa4,224(a0)
    1946:	3366                	fld	ft6,120(sp)
    1948:	3030                	fld	fa2,96(s0)
    194a:	3030                	fld	fa2,96(s0)
    194c:	5530                	lw	a2,104(a0)
    194e:	294c                	fld	fa1,144(a0)
    1950:	5f00                	lw	s0,56(a4)
    1952:	495f 544e 4c5f      	0x4c5f544e495f
    1958:	4145                	li	sp,17
    195a:	32335453          	0x32335453
    195e:	545f 5059 5f45      	0x5f455059545f
    1964:	205f 6f6c 676e      	0x676e6f6c205f
    196a:	6920                	flw	fs0,80(a0)
    196c:	746e                	flw	fs0,248(sp)
    196e:	5f00                	lw	s0,56(a4)
    1970:	495f 544e 4c5f      	0x4c5f544e495f
    1976:	4145                	li	sp,17
    1978:	36315453          	0x36315453
    197c:	4d5f 5841 5f5f      	0x5f5f58414d5f
    1982:	3020                	fld	fs0,96(s0)
    1984:	3778                	fld	fa4,232(a4)
    1986:	6666                	flw	fa2,88(sp)
    1988:	0066                	c.slli	zero,0x19
    198a:	5f5f 4c46 3154      	0x31544c465f5f
    1990:	3832                	fld	fa6,296(sp)
    1992:	485f 5341 515f      	0x515f5341485f
    1998:	4955                	li	s2,21
    199a:	5445                	li	s0,-15
    199c:	4e5f 4e41 5f5f      	0x5f5f4e414e5f
    19a2:	3120                	fld	fs0,96(a0)
    19a4:	5f00                	lw	s0,56(a4)
    19a6:	445f 4345 3231      	0x32314345445f
    19ac:	5f38                	lw	a4,120(a4)
    19ae:	414d                	li	sp,19
    19b0:	544e                	lw	s0,240(sp)
    19b2:	445f 4749 5f5f      	0x5f5f4749445f
    19b8:	3320                	fld	fs0,96(a4)
    19ba:	0034                	addi	a3,sp,8
    19bc:	5f5f 4544 3643      	0x364345445f5f
    19c2:	5f34                	lw	a3,120(a4)
    19c4:	494d                	li	s2,19
    19c6:	5f4e                	lw	t5,240(sp)
    19c8:	5845                	li	a6,-15
    19ca:	5f50                	lw	a2,60(a4)
    19cc:	205f 2d28 3833      	0x38332d28205f
    19d2:	2932                	fld	fs2,264(sp)
    19d4:	5f00                	lw	s0,56(a4)
    19d6:	575f 4e49 5f54      	0x5f544e49575f
    19dc:	54444957          	0x54444957
    19e0:	5f48                	lw	a0,60(a4)
    19e2:	205f 3233 5f00      	0x5f003233205f
    19e8:	465f 544c 3231      	0x3231544c465f
    19ee:	5f38                	lw	a4,120(a4)
    19f0:	4544                	lw	s1,12(a0)
    19f2:	414d4943          	fmadd.s	fs2,fs10,fs4,fs0,rmm
    19f6:	5f4c                	lw	a1,60(a4)
    19f8:	4944                	lw	s1,20(a0)
    19fa:	205f5f47          	fmsub.s	ft10,ft10,ft5,ft4,unknown
    19fe:	5f003633          	0x5f003633
    1a02:	575f 4843 5241      	0x52414843575f
    1a08:	4d5f 4e49 5f5f      	0x5f5f4e494d5f
    1a0e:	2820                	fld	fs0,80(s0)
    1a10:	5f2d                	li	t5,-21
    1a12:	575f 4843 5241      	0x52414843575f
    1a18:	4d5f 5841 5f5f      	0x5f5f58414d5f
    1a1e:	2d20                	fld	fs0,88(a0)
    1a20:	3120                	fld	fs0,96(a0)
    1a22:	0029                	c.nop	10
    1a24:	5f5f 4347 5f43      	0x5f4343475f5f
    1a2a:	5441                	li	s0,-16
    1a2c:	43494d4f          	fnmadd.d	fs10,fs2,fs4,fs0,rmm
    1a30:	435f 4148 3152      	0x31524148435f
    1a36:	5f36                	lw	t5,108(sp)
    1a38:	5f54                	lw	a3,60(a4)
    1a3a:	4f4c                	lw	a1,28(a4)
    1a3c:	465f4b43          	fmadd.q	fs6,ft10,ft5,fs0,rmm
    1a40:	4552                	lw	a0,20(sp)
    1a42:	2045                	jal	1ae2 <__Vectors-0x3fe51e>
    1a44:	0031                	c.nop	12
    1a46:	5f5f 4c46 3354      	0x33544c465f5f
    1a4c:	5f32                	lw	t5,44(sp)
    1a4e:	414d                	li	sp,19
    1a50:	5f58                	lw	a4,60(a4)
    1a52:	3031                	jal	125e <__Vectors-0x3feda2>
    1a54:	455f 5058 5f5f      	0x5f5f5058455f
    1a5a:	3320                	fld	fs0,96(a4)
    1a5c:	0038                	addi	a4,sp,8
    1a5e:	5f5f 4c46 3354      	0x33544c465f5f
    1a64:	5832                	lw	a6,44(sp)
    1a66:	445f 4749 5f5f      	0x5f5f4749445f
    1a6c:	3120                	fld	fs0,96(a0)
    1a6e:	0035                	c.nop	13
    1a70:	5f5f 6972 6373      	0x637369725f5f
    1a76:	5f76                	lw	t5,124(sp)
    1a78:	7478                	flw	fa4,108(s0)
    1a7a:	6568                	flw	fa0,76(a0)
    1a7c:	6461                	lui	s0,0x18
    1a7e:	31206573          	csrrsi	a0,0x312,0
    1a82:	5f00                	lw	s0,56(a4)
    1a84:	465f 544c 3233      	0x3233544c465f
    1a8a:	5f58                	lw	a4,60(a4)
    1a8c:	4148                	lw	a0,4(a0)
    1a8e:	45445f53          	0x45445f53
    1a92:	4f4e                	lw	t5,208(sp)
    1a94:	4d52                	lw	s10,20(sp)
    1a96:	5f5f 3120 5f00      	0x5f0031205f5f
    1a9c:	495f 544e 414d      	0x414d544e495f
    1aa2:	5f58                	lw	a4,60(a4)
    1aa4:	29632843          	fmadd.s	fa6,ft6,fs6,ft5,rdn
    1aa8:	6320                	flw	fs0,64(a4)
    1aaa:	2320                	fld	fs0,64(a4)
    1aac:	4c4c2023          	sw	tp,1216(s8)
    1ab0:	5f00                	lw	s0,56(a4)
    1ab2:	465f 544c 3233      	0x3233544c465f
    1ab8:	4d5f 5841 5f5f      	0x5f5f58414d5f
    1abe:	3320                	fld	fs0,96(a4)
    1ac0:	342e                	fld	fs0,232(sp)
    1ac2:	3230                	fld	fa2,96(a2)
    1ac4:	3238                	fld	fa4,96(a2)
    1ac6:	36363433          	0x36363433
    1aca:	32353833          	0x32353833
    1ace:	3838                	fld	fa4,112(s0)
    1ad0:	3935                	jal	170c <__Vectors-0x3fe8f4>
    1ad2:	3138                	fld	fa4,96(a0)
    1ad4:	3731                	jal	19e0 <__Vectors-0x3fe620>
    1ad6:	3430                	fld	fa2,104(s0)
    1ad8:	3831                	jal	12f4 <__Vectors-0x3fed0c>
    1ada:	34383433          	0x34383433
    1ade:	3135                	jal	170a <__Vectors-0x3fe8f6>
    1ae0:	3936                	fld	fs2,360(sp)
    1ae2:	3532                	fld	fa0,296(sp)
    1ae4:	2b65                	jal	209c <__Vectors-0x3fdf64>
    1ae6:	33463833          	0x33463833
    1aea:	0032                	c.slli	zero,0xc
    1aec:	5f5f 5450 4452      	0x445254505f5f
    1af2:	4649                	li	a2,18
    1af4:	5f46                	lw	t5,112(sp)
    1af6:	414d                	li	sp,19
    1af8:	5f58                	lw	a4,60(a4)
    1afa:	205f 7830 6637      	0x66377830205f
    1b00:	6666                	flw	fa2,88(sp)
    1b02:	6666                	flw	fa2,88(sp)
    1b04:	6666                	flw	fa2,88(sp)
    1b06:	5f00                	lw	s0,56(a4)
    1b08:	465f 544c 455f      	0x455f544c465f
    1b0e:	4156                	lw	sp,84(sp)
    1b10:	5f4c                	lw	a1,60(a4)
    1b12:	454d                	li	a0,19
    1b14:	4854                	lw	a3,20(s0)
    1b16:	5f5f444f          	fnmadd.q	fs0,ft10,fs5,fa1,rmm
    1b1a:	3020                	fld	fs0,96(s0)
    1b1c:	5f00                	lw	s0,56(a4)
    1b1e:	495f 544e 4c5f      	0x4c5f544e495f
    1b24:	4145                	li	sp,17
    1b26:	5f385453          	0x5f385453
    1b2a:	5954                	lw	a3,52(a0)
    1b2c:	4550                	lw	a2,12(a0)
    1b2e:	5f5f 7320 6769      	0x676973205f5f
    1b34:	656e                	flw	fa0,216(sp)
    1b36:	2064                	fld	fs1,192(s0)
    1b38:	72616863          	bltu	sp,t1,2268 <__Vectors-0x3fdd98>
    1b3c:	5f00                	lw	s0,56(a4)
    1b3e:	555f 4e49 3154      	0x31544e49555f
    1b44:	5f36                	lw	t5,108(sp)
    1b46:	29632843          	fmadd.s	fa6,ft6,fs6,ft5,rdn
    1b4a:	6320                	flw	fs0,64(a4)
    1b4c:	5f00                	lw	s0,56(a4)
    1b4e:	535f 5248 5f54      	0x5f545248535f
    1b54:	414d                	li	sp,19
    1b56:	5f58                	lw	a4,60(a4)
    1b58:	205f 7830 6637      	0x66377830205f
    1b5e:	6666                	flw	fa2,88(sp)
    1b60:	5800                	lw	s0,48(s0)
    1b62:	5242                	lw	tp,48(sp)
    1b64:	3238                	fld	fa4,96(a2)
    1b66:	5f30                	lw	a2,120(a4)
    1b68:	4d415253          	0x4d415253
    1b6c:	425f 5341 2045      	0x20455341425f
    1b72:	3028                	fld	fa0,96(s0)
    1b74:	3078                	fld	fa4,224(s0)
    1b76:	3430                	fld	fa2,104(s0)
    1b78:	3030                	fld	fa2,96(s0)
    1b7a:	3030                	fld	fa2,96(s0)
    1b7c:	5530                	lw	a2,104(a0)
    1b7e:	294c                	fld	fa1,144(a0)
    1b80:	5f00                	lw	s0,56(a4)
    1b82:	535f 5a49 4f45      	0x4f455a49535f
    1b88:	5f46                	lw	t5,112(sp)
    1b8a:	4c46                	lw	s8,80(sp)
    1b8c:	5f54414f          	fnmadd.q	ft2,fs0,fs5,fa1,rmm
    1b90:	205f 0034 6572      	0x65720034205f
    1b96:	5f323367          	0x5f323367
    1b9a:	28726c63          	bltu	tp,t2,1e32 <__Vectors-0x3fe1ce>
    1b9e:	2c72                	fld	fs8,280(sp)
    1ba0:	296d                	jal	205a <__Vectors-0x3fdfa6>
    1ba2:	7220                	flw	fs0,96(a2)
    1ba4:	6765                	lui	a4,0x19
    1ba6:	775f3233          	0x775f3233
    1baa:	6972                	flw	fs2,28(sp)
    1bac:	6574                	flw	fa3,76(a0)
    1bae:	7228                	flw	fa0,96(a2)
    1bb0:	202c                	fld	fa1,64(s0)
    1bb2:	6572                	flw	fa0,28(sp)
    1bb4:	5f323367          	0x5f323367
    1bb8:	6572                	flw	fa0,28(sp)
    1bba:	6461                	lui	s0,0x18
    1bbc:	7228                	flw	fa0,96(a2)
    1bbe:	2029                	jal	1bc8 <__Vectors-0x3fe438>
    1bc0:	2026                	fld	ft0,72(sp)
    1bc2:	287e                	fld	fa6,472(sp)
    1bc4:	296d                	jal	207e <__Vectors-0x3fdf82>
    1bc6:	0029                	c.nop	10
    1bc8:	5f5f 4357 4148      	0x414843575f5f
    1bce:	5f52                	lw	t5,52(sp)
    1bd0:	414d                	li	sp,19
    1bd2:	5f58                	lw	a4,60(a4)
    1bd4:	205f 7830 6637      	0x66377830205f
    1bda:	6666                	flw	fa2,88(sp)
    1bdc:	6666                	flw	fa2,88(sp)
    1bde:	6666                	flw	fa2,88(sp)
    1be0:	5f00                	lw	s0,56(a4)
    1be2:	465f 544c 3231      	0x3231544c465f
    1be8:	5f38                	lw	a4,120(a4)
    1bea:	4544                	lw	s1,12(a0)
    1bec:	4f4e                	lw	t5,208(sp)
    1bee:	4d52                	lw	s10,20(sp)
    1bf0:	4d5f 4e49 5f5f      	0x5f5f4e494d5f
    1bf6:	3620                	fld	fs0,104(a2)
    1bf8:	342e                	fld	fs0,232(sp)
    1bfa:	37313537          	lui	a0,0x37313
    1bfe:	3135                	jal	182a <__Vectors-0x3fe7d6>
    1c00:	3931                	jal	181c <__Vectors-0x3fe7e4>
    1c02:	3334                	fld	fa3,96(a4)
    1c04:	3038                	fld	fa4,96(s0)
    1c06:	3532                	fld	fa0,296(sp)
    1c08:	3131                	jal	1814 <__Vectors-0x3fe7ec>
    1c0a:	3930                	fld	fa2,112(a0)
    1c0c:	3432                	fld	fs0,296(sp)
    1c0e:	3334                	fld	fa3,96(a4)
    1c10:	3938                	fld	fa4,112(a0)
    1c12:	3835                	jal	144e <__Vectors-0x3febb2>
    1c14:	3232                	fld	ft4,296(sp)
    1c16:	36343637          	lui	a2,0x36343
    1c1a:	3535                	jal	1a46 <__Vectors-0x3fe5ba>
    1c1c:	2d65                	jal	22d4 <__Vectors-0x3fdd2c>
    1c1e:	3934                	fld	fa3,112(a0)
    1c20:	3636                	fld	fa2,360(sp)
    1c22:	3146                	fld	ft2,112(sp)
    1c24:	3832                	fld	fa6,296(sp)
    1c26:	5f00                	lw	s0,56(a4)
    1c28:	535f 4454 5f43      	0x5f434454535f
    1c2e:	205f 0031 5f5f      	0x5f5f0031205f
    1c34:	4544524f          	fnmadd.h	ft4,fs0,fs4,fs0,unknown
    1c38:	5f52                	lw	t5,52(sp)
    1c3a:	4450                	lw	a2,12(s0)
    1c3c:	5f50                	lw	a2,60(a4)
    1c3e:	4e45                	li	t3,17
    1c40:	4944                	lw	s1,20(a0)
    1c42:	4e41                	li	t3,16
    1c44:	5f5f 3320 3134      	0x313433205f5f
    1c4a:	0032                	c.slli	zero,0xc
    1c4c:	5f5f 524f 4544      	0x4544524f5f5f
    1c52:	5f52                	lw	t5,52(sp)
    1c54:	494c                	lw	a1,20(a0)
    1c56:	5454                	lw	a3,44(s0)
    1c58:	454c                	lw	a1,12(a0)
    1c5a:	455f 444e 4149      	0x4149444e455f
    1c60:	5f4e                	lw	t5,240(sp)
    1c62:	205f 3231 3433      	0x34333231205f
    1c68:	5f00                	lw	s0,56(a4)
    1c6a:	575f 4e49 5f54      	0x5f544e49575f
    1c70:	5954                	lw	a3,52(a0)
    1c72:	4550                	lw	a2,12(a0)
    1c74:	5f5f 7520 736e      	0x736e75205f5f
    1c7a:	6769                	lui	a4,0x1a
    1c7c:	656e                	flw	fa0,216(sp)
    1c7e:	2064                	fld	fs1,192(s0)
    1c80:	6e69                	lui	t3,0x1a
    1c82:	0074                	addi	a3,sp,12
    1c84:	5f5f 4e49 5f54      	0x5f544e495f5f
    1c8a:	454c                	lw	a1,12(a0)
    1c8c:	5341                	li	t1,-16
    1c8e:	3654                	fld	fa3,168(a2)
    1c90:	5f34                	lw	a3,120(a4)
    1c92:	5954                	lw	a3,52(a0)
    1c94:	4550                	lw	a2,12(a0)
    1c96:	5f5f 6c20 6e6f      	0x6e6f6c205f5f
    1c9c:	6f6c2067          	0x6f6c2067
    1ca0:	676e                	flw	fa4,216(sp)
    1ca2:	6920                	flw	fs0,80(a0)
    1ca4:	746e                	flw	fs0,248(sp)
    1ca6:	5f00                	lw	s0,56(a4)
    1ca8:	415f 4f54 494d      	0x494d4f54415f
    1cae:	45525f43          	fmadd.h	ft10,ft4,fs5,fs0,unknown
    1cb2:	414c                	lw	a1,4(a0)
    1cb4:	4558                	lw	a4,12(a0)
    1cb6:	2044                	fld	fs1,128(s0)
    1cb8:	0030                	addi	a2,sp,8
    1cba:	5f5f 4544 4943      	0x494345445f5f
    1cc0:	414d                	li	sp,19
    1cc2:	5f4c                	lw	a1,60(a4)
    1cc4:	4944                	lw	s1,20(a0)
    1cc6:	205f5f47          	fmsub.s	ft10,ft10,ft5,ft4,unknown
    1cca:	5f003633          	0x5f003633
    1cce:	495f 544e 4c5f      	0x4c5f544e495f
    1cd4:	4145                	li	sp,17
    1cd6:	32335453          	0x32335453
    1cda:	4d5f 5841 5f5f      	0x5f5f58414d5f
    1ce0:	3020                	fld	fs0,96(s0)
    1ce2:	3778                	fld	fa4,232(a4)
    1ce4:	6666                	flw	fa2,88(sp)
    1ce6:	6666                	flw	fa2,88(sp)
    1ce8:	6666                	flw	fa2,88(sp)
    1cea:	4c66                	lw	s8,88(sp)
    1cec:	5f00                	lw	s0,56(a4)
    1cee:	445f 4345 3233      	0x32334345445f
    1cf4:	4d5f 4e41 5f54      	0x5f544e414d5f
    1cfa:	4944                	lw	s1,20(a0)
    1cfc:	205f5f47          	fmsub.s	ft10,ft10,ft5,ft4,unknown
    1d00:	5f5f0037          	lui	zero,0x5f5f0
    1d04:	5f434347          	fmsub.q	ft6,ft6,fs4,fa1,rmm
    1d08:	4549                	li	a0,18
    1d0a:	35355f43          	fmadd.h	ft10,fa0,fs3,ft6,unknown
    1d0e:	2039                	jal	1d1c <__Vectors-0x3fe2e4>
    1d10:	0030                	addi	a2,sp,8
    1d12:	5f5f 4544 3143      	0x314345445f5f
    1d18:	3832                	fld	fa6,296(sp)
    1d1a:	535f 4255 4f4e      	0x4f4e4255535f
    1d20:	4d52                	lw	s10,20(sp)
    1d22:	4c41                	li	s8,16
    1d24:	4d5f 4e49 5f5f      	0x5f5f4e494d5f
    1d2a:	3020                	fld	fs0,96(s0)
    1d2c:	302e                	fld	ft0,232(sp)
    1d2e:	3030                	fld	fa2,96(s0)
    1d30:	3030                	fld	fa2,96(s0)
    1d32:	3030                	fld	fa2,96(s0)
    1d34:	3030                	fld	fa2,96(s0)
    1d36:	3030                	fld	fa2,96(s0)
    1d38:	3030                	fld	fa2,96(s0)
    1d3a:	3030                	fld	fa2,96(s0)
    1d3c:	3030                	fld	fa2,96(s0)
    1d3e:	3030                	fld	fa2,96(s0)
    1d40:	3030                	fld	fa2,96(s0)
    1d42:	3030                	fld	fa2,96(s0)
    1d44:	3030                	fld	fa2,96(s0)
    1d46:	3030                	fld	fa2,96(s0)
    1d48:	3030                	fld	fa2,96(s0)
    1d4a:	3030                	fld	fa2,96(s0)
    1d4c:	3130                	fld	fa2,96(a0)
    1d4e:	2d45                	jal	23fe <__Vectors-0x3fdc02>
    1d50:	3136                	fld	ft2,360(sp)
    1d52:	3334                	fld	fa3,96(a4)
    1d54:	4c44                	lw	s1,28(s0)
    1d56:	5800                	lw	s0,48(s0)
    1d58:	5242                	lw	tp,48(sp)
    1d5a:	3238                	fld	fa4,96(a2)
    1d5c:	5f30                	lw	a2,120(a4)
    1d5e:	5249                	li	tp,-14
    1d60:	425f 5341 2045      	0x20455341425f
    1d66:	3028                	fld	fa0,96(s0)
    1d68:	3178                	fld	fa4,224(a0)
    1d6a:	3766                	fld	fa4,120(sp)
    1d6c:	3030                	fld	fa2,96(s0)
    1d6e:	3030                	fld	fa2,96(s0)
    1d70:	5530                	lw	a2,104(a0)
    1d72:	294c                	fld	fa1,144(a0)
    1d74:	5f00                	lw	s0,56(a4)
    1d76:	465f 544c 3233      	0x3233544c465f
    1d7c:	5f58                	lw	a4,60(a4)
    1d7e:	4544                	lw	s1,12(a0)
    1d80:	4f4e                	lw	t5,208(sp)
    1d82:	4d52                	lw	s10,20(sp)
    1d84:	4d5f 4e49 5f5f      	0x5f5f4e494d5f
    1d8a:	3420                	fld	fs0,104(s0)
    1d8c:	392e                	fld	fs2,232(sp)
    1d8e:	3034                	fld	fa3,96(s0)
    1d90:	3536                	fld	fa0,360(sp)
    1d92:	3436                	fld	fs0,360(sp)
    1d94:	3835                	jal	15d0 <__Vectors-0x3fea30>
    1d96:	3134                	fld	fa3,96(a0)
    1d98:	3432                	fld	fs0,296(sp)
    1d9a:	3536                	fld	fa0,360(sp)
    1d9c:	3434                	fld	fa3,104(s0)
    1d9e:	3731                	jal	1caa <__Vectors-0x3fe356>
    1da0:	3536                	fld	fa0,360(sp)
    1da2:	3836                	fld	fa6,360(sp)
    1da4:	38323937          	lui	s2,0x38323
    1da8:	3836                	fld	fa6,360(sp)
    1daa:	3232                	fld	ft4,296(sp)
    1dac:	3331                	jal	1ab8 <__Vectors-0x3fe548>
    1dae:	2d653237          	lui	tp,0x2d653
    1db2:	46343233          	0x46343233
    1db6:	00783233          	sltu	tp,a6,t2
    1dba:	5f5f 4c46 3654      	0x36544c465f5f
    1dc0:	5834                	lw	a3,112(s0)
    1dc2:	4d5f 4e41 5f54      	0x5f544e414d5f
    1dc8:	4944                	lw	s1,20(a0)
    1dca:	205f5f47          	fmsub.s	ft10,ft10,ft5,ft4,unknown
    1dce:	3131                	jal	19da <__Vectors-0x3fe626>
    1dd0:	69750033          	0x69750033
    1dd4:	746e                	flw	fs0,248(sp)
    1dd6:	745f3233          	0x745f3233
    1dda:	5f00                	lw	s0,56(a4)
    1ddc:	465f 544c 3436      	0x3436544c465f
    1de2:	5f58                	lw	a4,60(a4)
    1de4:	4148                	lw	a0,4(a0)
    1de6:	55515f53          	0x55515f53
    1dea:	4549                	li	a0,18
    1dec:	5f54                	lw	a3,60(a4)
    1dee:	414e                	lw	sp,208(sp)
    1df0:	5f4e                	lw	t5,240(sp)
    1df2:	205f 0031 5f5f      	0x5f5f0031205f
    1df8:	444c                	lw	a1,12(s0)
    1dfa:	4c42                	lw	s8,16(sp)
    1dfc:	485f 5341 515f      	0x515f5341485f
    1e02:	4955                	li	s2,21
    1e04:	5445                	li	s0,-15
    1e06:	4e5f 4e41 5f5f      	0x5f5f4e414e5f
    1e0c:	3120                	fld	fs0,96(a0)
    1e0e:	5f00                	lw	s0,56(a4)
    1e10:	535f 4749 415f      	0x415f4749535f
    1e16:	4f54                	lw	a3,28(a4)
    1e18:	494d                	li	s2,19
    1e1a:	414d5f43          	fmadd.s	ft10,fs10,fs4,fs0,unknown
    1e1e:	5f58                	lw	a4,60(a4)
    1e20:	205f 7830 6637      	0x66377830205f
    1e26:	6666                	flw	fa2,88(sp)
    1e28:	6666                	flw	fa2,88(sp)
    1e2a:	6666                	flw	fa2,88(sp)
    1e2c:	5f00                	lw	s0,56(a4)
    1e2e:	465f 544c 3233      	0x3233544c465f
    1e34:	5f58                	lw	a4,60(a4)
    1e36:	4148                	lw	a0,4(a0)
    1e38:	4e495f53          	0x4e495f53
    1e3c:	4946                	lw	s2,80(sp)
    1e3e:	494e                	lw	s2,208(sp)
    1e40:	5954                	lw	a3,52(a0)
    1e42:	5f5f 3120 5f00      	0x5f0031205f5f
    1e48:	465f 544c 3231      	0x3231544c465f
    1e4e:	5f38                	lw	a4,120(a4)
    1e50:	414d                	li	sp,19
    1e52:	544e                	lw	s0,240(sp)
    1e54:	445f 4749 5f5f      	0x5f5f4749445f
    1e5a:	3120                	fld	fs0,96(a0)
    1e5c:	3331                	jal	1b68 <__Vectors-0x3fe498>
    1e5e:	5f00                	lw	s0,56(a4)
    1e60:	555f 4e49 5054      	0x50544e49555f
    1e66:	5254                	lw	a3,36(a2)
    1e68:	545f 5059 5f45      	0x5f455059545f
    1e6e:	205f 6e75 6973      	0x69736e75205f
    1e74:	64656e67          	0x64656e67
    1e78:	6920                	flw	fs0,80(a0)
    1e7a:	746e                	flw	fs0,248(sp)
    1e7c:	5f00                	lw	s0,56(a4)
    1e7e:	465f 544c 3233      	0x3233544c465f
    1e84:	485f 5341 445f      	0x445f5341485f
    1e8a:	4e45                	li	t3,17
    1e8c:	5f4d524f          	fnmadd.q	ft4,fs10,fs4,fa1,unknown
    1e90:	205f 0031 5f5f      	0x5f5f0031205f
    1e96:	4955                	li	s2,21
    1e98:	544e                	lw	s0,240(sp)
    1e9a:	3436                	fld	fs0,360(sp)
    1e9c:	435f 6328 2029      	0x20296328435f
    1ea2:	23232063          	0x23232063
    1ea6:	5520                	lw	s0,104(a0)
    1ea8:	4c4c                	lw	a1,28(s0)
    1eaa:	5f00                	lw	s0,56(a4)
    1eac:	465f 544c 3436      	0x3436544c465f
    1eb2:	4d5f 4e41 5f54      	0x5f544e414d5f
    1eb8:	4944                	lw	s1,20(a0)
    1eba:	205f5f47          	fmsub.s	ft10,ft10,ft5,ft4,unknown
    1ebe:	3335                	jal	1bea <__Vectors-0x3fe416>
    1ec0:	5f00                	lw	s0,56(a4)
    1ec2:	465f 544c 485f      	0x485f544c465f
    1ec8:	5341                	li	t1,-16
    1eca:	495f 464e 4e49      	0x4e49464e495f
    1ed0:	5449                	li	s0,-14
    1ed2:	5f59                	li	t5,-10
    1ed4:	205f 0031 5f5f      	0x5f5f0031205f
    1eda:	4c46                	lw	s8,80(sp)
    1edc:	3654                	fld	fa3,168(a2)
    1ede:	5f34                	lw	a3,120(a4)
    1ee0:	4544                	lw	s1,12(a0)
    1ee2:	414d4943          	fmadd.s	fs2,fs10,fs4,fs0,rmm
    1ee6:	5f4c                	lw	a1,60(a4)
    1ee8:	4944                	lw	s1,20(a0)
    1eea:	205f5f47          	fmsub.s	ft10,ft10,ft5,ft4,unknown
    1eee:	3731                	jal	1dfa <__Vectors-0x3fe206>
    1ef0:	5f00                	lw	s0,56(a4)
    1ef2:	4c5f 4e4f 5f47      	0x5f474e4f4c5f
    1ef8:	4f4c                	lw	a1,28(a4)
    1efa:	474e                	lw	a4,208(sp)
    1efc:	575f 4449 4854      	0x48544449575f
    1f02:	5f5f 3620 0034      	0x3436205f5f
    1f08:	5f5f 4c46 3654      	0x36544c465f5f
    1f0e:	5f34                	lw	a3,120(a4)
    1f10:	4544                	lw	s1,12(a0)
    1f12:	4f4e                	lw	t5,208(sp)
    1f14:	4d52                	lw	s10,20(sp)
    1f16:	4d5f 4e49 5f5f      	0x5f5f4e494d5f
    1f1c:	3420                	fld	fs0,104(s0)
    1f1e:	392e                	fld	fs2,232(sp)
    1f20:	3034                	fld	fa3,96(s0)
    1f22:	3536                	fld	fa0,360(sp)
    1f24:	3436                	fld	fs0,360(sp)
    1f26:	3835                	jal	1762 <__Vectors-0x3fe89e>
    1f28:	3134                	fld	fa3,96(a0)
    1f2a:	3432                	fld	fs0,296(sp)
    1f2c:	3536                	fld	fa0,360(sp)
    1f2e:	3434                	fld	fa3,104(s0)
    1f30:	3731                	jal	1e3c <__Vectors-0x3fe1c4>
    1f32:	3536                	fld	fa0,360(sp)
    1f34:	3836                	fld	fa6,360(sp)
    1f36:	38323937          	lui	s2,0x38323
    1f3a:	3836                	fld	fa6,360(sp)
    1f3c:	3232                	fld	ft4,296(sp)
    1f3e:	3331                	jal	1c4a <__Vectors-0x3fe3b6>
    1f40:	2d653237          	lui	tp,0x2d653
    1f44:	46343233          	0x46343233
    1f48:	3436                	fld	fs0,360(sp)
    1f4a:	7200                	flw	fs0,32(a2)
    1f4c:	6765                	lui	a4,0x19
    1f4e:	5f38                	lw	a4,120(a4)
    1f50:	6572                	flw	fa0,28(sp)
    1f52:	6461                	lui	s0,0x18
    1f54:	7228                	flw	fa0,96(a2)
    1f56:	2029                	jal	1f60 <__Vectors-0x3fe0a0>
    1f58:	2a28                	fld	fa0,80(a2)
    1f5a:	7228                	flw	fa0,96(a2)
    1f5c:	6765                	lui	a4,0x19
    1f5e:	5f38                	lw	a4,120(a4)
    1f60:	2074                	fld	fa3,192(s0)
    1f62:	292a                	fld	fs2,136(sp)
    1f64:	7228                	flw	fa0,96(a2)
    1f66:	2929                	jal	2380 <__Vectors-0x3fdc80>
    1f68:	5f00                	lw	s0,56(a4)
    1f6a:	495f 544e 3631      	0x3631544e495f
    1f70:	545f 5059 5f45      	0x5f455059545f
    1f76:	205f 6873 726f      	0x726f6873205f
    1f7c:	2074                	fld	fa3,192(s0)
    1f7e:	6e69                	lui	t3,0x1a
    1f80:	0074                	addi	a3,sp,12
    1f82:	5f5f 4953 455a      	0x455a49535f5f
    1f88:	4c5f464f          	fnmadd.h	fa2,ft10,ft5,fs1,rmm
    1f8c:	5f474e4f          	fnmadd.q	ft8,fa4,fs4,fa1,rmm
    1f90:	205f 0034 5f5f      	0x5f5f0034205f
    1f96:	4955                	li	s2,21
    1f98:	544e                	lw	s0,240(sp)
    1f9a:	465f 5341 3354      	0x33545341465f
    1fa0:	5f32                	lw	t5,44(sp)
    1fa2:	414d                	li	sp,19
    1fa4:	5f58                	lw	a4,60(a4)
    1fa6:	205f 7830 6666      	0x66667830205f
    1fac:	6666                	flw	fa2,88(sp)
    1fae:	6666                	flw	fa2,88(sp)
    1fb0:	6666                	flw	fa2,88(sp)
    1fb2:	0055                	c.nop	21
    1fb4:	5f5f 5453 4344      	0x434454535f5f
    1fba:	555f 4654 315f      	0x315f4654555f
    1fc0:	5f36                	lw	t5,108(sp)
    1fc2:	205f 0031 5f5f      	0x5f5f0031205f
    1fc8:	444c                	lw	a1,12(s0)
    1fca:	4c42                	lw	s8,16(sp)
    1fcc:	455f 5350 4c49      	0x4c495350455f
    1fd2:	5f5f4e4f          	fnmadd.q	ft8,ft10,fs5,fa1,rmm
    1fd6:	3120                	fld	fs0,96(a0)
    1fd8:	392e                	fld	fs2,232(sp)
    1fda:	3532                	fld	fa0,296(sp)
    1fdc:	3239                	jal	18ea <__Vectors-0x3fe716>
    1fde:	3939                	jal	1bfc <__Vectors-0x3fe404>
    1fe0:	3434                	fld	fa3,104(s0)
    1fe2:	32373833          	0x32373833
    1fe6:	35383533          	0x35383533
    1fea:	35353033          	0x35353033
    1fee:	3739                	jal	1efc <__Vectors-0x3fe104>
    1ff0:	32343937          	lui	s2,0x32343
    1ff4:	3835                	jal	1830 <__Vectors-0x3fe7d0>
    1ff6:	3934                	fld	fa3,112(a0)
    1ff8:	3732                	fld	fa4,296(sp)
    1ffa:	2d653233          	0x2d653233
    1ffe:	004c3433          	sltu	s0,s8,tp
    2002:	5f5f 4955 544e      	0x544e49555f5f
    2008:	465f 5341 3854      	0x38545341465f
    200e:	545f 5059 5f45      	0x5f455059545f
    2014:	205f 6e75 6973      	0x69736e75205f
    201a:	64656e67          	0x64656e67
    201e:	6920                	flw	fs0,80(a0)
    2020:	746e                	flw	fs0,248(sp)
    2022:	5f00                	lw	s0,56(a4)
    2024:	505f 5254 4944      	0x49445254505f
    202a:	4646                	lw	a2,80(sp)
    202c:	545f 5059 5f45      	0x5f455059545f
    2032:	205f 6e69 0074      	0x746e69205f
    2038:	5f5f 444c 4c42      	0x4c42444c5f5f
    203e:	485f 5341 445f      	0x445f5341485f
    2044:	4e45                	li	t3,17
    2046:	5f4d524f          	fnmadd.q	ft4,fs10,fs4,fa1,unknown
    204a:	205f 0031 5f5f      	0x5f5f0031205f
    2050:	4955                	li	s2,21
    2052:	544e                	lw	s0,240(sp)
    2054:	4c5f 4145 5453      	0x545341454c5f
    205a:	4d5f3233          	0x4d5f3233
    205e:	5841                	li	a6,-16
    2060:	5f5f 3020 6678      	0x667830205f5f
    2066:	6666                	flw	fa2,88(sp)
    2068:	6666                	flw	fa2,88(sp)
    206a:	6666                	flw	fa2,88(sp)
    206c:	5566                	lw	a0,120(sp)
    206e:	004c                	addi	a1,sp,4
    2070:	5f5f 6168 5f73      	0x5f7361685f5f
    2076:	6e69                	lui	t3,0x1a
    2078:	64756c63          	bltu	a0,t2,26d0 <__Vectors-0x3fd930>
    207c:	2865                	jal	2134 <__Vectors-0x3fdecc>
    207e:	29525453          	0x29525453
    2082:	5f20                	lw	s0,120(a4)
    2084:	685f 7361 695f      	0x695f7361685f
    208a:	636e                	flw	ft6,216(sp)
    208c:	756c                	flw	fa1,108(a0)
    208e:	6564                	flw	fs1,76(a0)
    2090:	5f5f 5328 5254      	0x525453285f5f
    2096:	0029                	c.nop	10
    2098:	5f5f 4c46 3654      	0x36544c465f5f
    209e:	5834                	lw	a3,112(s0)
    20a0:	455f 5350 4c49      	0x4c495350455f
    20a6:	5f5f4e4f          	fnmadd.q	ft8,ft10,fs5,fa1,rmm
    20aa:	3120                	fld	fs0,96(a0)
    20ac:	392e                	fld	fs2,232(sp)
    20ae:	3532                	fld	fa0,296(sp)
    20b0:	3239                	jal	19be <__Vectors-0x3fe642>
    20b2:	3939                	jal	1cd0 <__Vectors-0x3fe330>
    20b4:	3434                	fld	fa3,104(s0)
    20b6:	32373833          	0x32373833
    20ba:	35383533          	0x35383533
    20be:	35353033          	0x35353033
    20c2:	3739                	jal	1fd0 <__Vectors-0x3fe030>
    20c4:	32343937          	lui	s2,0x32343
    20c8:	3835                	jal	1904 <__Vectors-0x3fe6fc>
    20ca:	3934                	fld	fa3,112(a0)
    20cc:	3732                	fld	fa4,296(sp)
    20ce:	2d653233          	0x2d653233
    20d2:	36463433          	0x36463433
    20d6:	7834                	flw	fa3,112(s0)
    20d8:	5f00                	lw	s0,56(a4)
    20da:	495f 544e 465f      	0x465f544e495f
    20e0:	5341                	li	t1,-16
    20e2:	3354                	fld	fa3,160(a4)
    20e4:	5f32                	lw	t5,44(sp)
    20e6:	414d                	li	sp,19
    20e8:	5f58                	lw	a4,60(a4)
    20ea:	205f 7830 6637      	0x66377830205f
    20f0:	6666                	flw	fa2,88(sp)
    20f2:	6666                	flw	fa2,88(sp)
    20f4:	6666                	flw	fa2,88(sp)
    20f6:	5f00                	lw	s0,56(a4)
    20f8:	525f 4745 5349      	0x53494745525f
    20fe:	4554                	lw	a3,12(a0)
    2100:	5f52                	lw	t5,52(sp)
    2102:	5250                	lw	a2,36(a2)
    2104:	4645                	li	a2,17
    2106:	5849                	li	a6,-14
    2108:	5f5f 0020 5f5f      	0x5f5f00205f5f
    210e:	5441                	li	s0,-16
    2110:	43494d4f          	fnmadd.d	fs10,fs2,fs4,fs0,rmm
    2114:	435f 4e4f 5553      	0x55534e4f435f
    211a:	454d                	li	a0,19
    211c:	3120                	fld	fs0,96(a0)
    211e:	5f00                	lw	s0,56(a4)
    2120:	4c5f 4244 5f4c      	0x5f4c42444c5f
    2126:	4544                	lw	s1,12(a0)
    2128:	414d4943          	fmadd.s	fs2,fs10,fs4,fs0,rmm
    212c:	5f4c                	lw	a1,60(a4)
    212e:	4944                	lw	s1,20(a0)
    2130:	205f5f47          	fmsub.s	ft10,ft10,ft5,ft4,unknown
    2134:	5f003633          	0x5f003633
    2138:	535f 4454 5f43      	0x5f434454535f
    213e:	5455                	li	s0,-11
    2140:	5f46                	lw	t5,112(sp)
    2142:	5f5f3233          	0x5f5f3233
    2146:	3120                	fld	fs0,96(a0)
    2148:	5f00                	lw	s0,56(a4)
    214a:	555f 4e49 3154      	0x31544e49555f
    2150:	5f36                	lw	t5,108(sp)
    2152:	5954                	lw	a3,52(a0)
    2154:	4550                	lw	a2,12(a0)
    2156:	5f5f 7320 6f68      	0x6f6873205f5f
    215c:	7472                	flw	fs0,60(sp)
    215e:	7520                	flw	fs0,104(a0)
    2160:	736e                	flw	ft6,248(sp)
    2162:	6769                	lui	a4,0x1a
    2164:	656e                	flw	fa0,216(sp)
    2166:	2064                	fld	fs1,192(s0)
    2168:	6e69                	lui	t3,0x1a
    216a:	0074                	addi	a3,sp,12
    216c:	5f5f 4c46 3654      	0x36544c465f5f
    2172:	5834                	lw	a3,112(s0)
    2174:	4d5f 5841 315f      	0x315f58414d5f
    217a:	5f30                	lw	a2,120(a4)
    217c:	5845                	li	a6,-15
    217e:	5f50                	lw	a2,60(a4)
    2180:	205f 3934 3233      	0x32333934205f
    2186:	5f00                	lw	s0,56(a4)
    2188:	4f5f 5450 4d49      	0x4d4954504f5f
    218e:	5a49                	li	s4,-14
    2190:	5f45                	li	t5,-15
    2192:	205f 0031 5f5f      	0x5f5f0031205f
    2198:	4c46                	lw	s8,80(sp)
    219a:	3654                	fld	fa3,168(a2)
    219c:	5834                	lw	a3,112(s0)
    219e:	4d5f 4e49 455f      	0x455f4e494d5f
    21a4:	5058                	lw	a4,36(s0)
    21a6:	5f5f 2820 312d      	0x312d28205f5f
    21ac:	3336                	fld	ft6,360(sp)
    21ae:	3138                	fld	fa4,96(a0)
    21b0:	0029                	c.nop	10
    21b2:	5f5f 4c46 3354      	0x33544c465f5f
    21b8:	5f32                	lw	t5,44(sp)
    21ba:	4148                	lw	a0,4(a0)
    21bc:	55515f53          	0x55515f53
    21c0:	4549                	li	a0,18
    21c2:	5f54                	lw	a3,60(a4)
    21c4:	414e                	lw	sp,208(sp)
    21c6:	5f4e                	lw	t5,240(sp)
    21c8:	205f 0031 5f5f      	0x5f5f0031205f
    21ce:	4544                	lw	s1,12(a0)
    21d0:	5f323343          	fmadd.q	ft6,ft4,fs3,fa1,rup
    21d4:	4e425553          	0x4e425553
    21d8:	414d524f          	fnmadd.s	ft4,fs10,fs4,fs0,unknown
    21dc:	5f4c                	lw	a1,60(a4)
    21de:	494d                	li	s2,19
    21e0:	5f4e                	lw	t5,240(sp)
    21e2:	205f 2e30 3030      	0x30302e30205f
    21e8:	3030                	fld	fa2,96(s0)
    21ea:	3130                	fld	fa2,96(a0)
    21ec:	2d45                	jal	289c <__Vectors-0x3fd764>
    21ee:	3539                	jal	1ffc <__Vectors-0x3fe004>
    21f0:	4644                	lw	s1,12(a2)
    21f2:	5800                	lw	s0,48(s0)
    21f4:	5242                	lw	tp,48(sp)
    21f6:	3238                	fld	fa4,96(a2)
    21f8:	5f30                	lw	a2,120(a4)
    21fa:	4f54                	lw	a3,28(a4)
    21fc:	5f50                	lw	a2,60(a4)
    21fe:	4142                	lw	sp,16(sp)
    2200:	28204553          	0x28204553
    2204:	7830                	flw	fa2,112(s0)
    2206:	6631                	lui	a2,0xc
    2208:	3030                	fld	fa2,96(s0)
    220a:	3030                	fld	fa2,96(s0)
    220c:	3030                	fld	fa2,96(s0)
    220e:	4c55                	li	s8,21
    2210:	0029                	c.nop	10
    2212:	5f5f 4c46 3154      	0x31544c465f5f
    2218:	3832                	fld	fa6,296(sp)
    221a:	4d5f 5841 5f5f      	0x5f5f58414d5f
    2220:	3120                	fld	fs0,96(a0)
    2222:	312e                	fld	ft2,232(sp)
    2224:	3938                	fld	fa4,112(a0)
    2226:	34313337          	lui	t1,0x34313
    222a:	3539                	jal	2038 <__Vectors-0x3fdfc8>
    222c:	32373533          	0x32373533
    2230:	36373133          	0x36373133
    2234:	3035                	jal	1a60 <__Vectors-0x3fe5a0>
    2236:	3538                	fld	fa4,104(a0)
    2238:	33393537          	lui	a0,0x33393
    223c:	3632                	fld	fa2,296(sp)
    223e:	3236                	fld	ft4,360(sp)
    2240:	3038                	fld	fa4,96(s0)
    2242:	3730                	fld	fa2,104(a4)
    2244:	3230                	fld	fa2,96(a2)
    2246:	2b65                	jal	27fe <__Vectors-0x3fd802>
    2248:	3934                	fld	fa3,112(a0)
    224a:	31463233          	0x31463233
    224e:	3832                	fld	fa6,296(sp)
    2250:	5f00                	lw	s0,56(a4)
    2252:	445f 4345 3436      	0x34364345445f
    2258:	4d5f 4e49 5f5f      	0x5f5f4e494d5f
    225e:	3120                	fld	fs0,96(a0)
    2260:	2d45                	jal	2910 <__Vectors-0x3fd6f0>
    2262:	44333833          	0x44333833
    2266:	0044                	addi	s1,sp,4
    2268:	5f5f 5847 5f58      	0x5f5858475f5f
    226e:	4241                	li	tp,16
    2270:	5f49                	li	t5,-14
    2272:	4556                	lw	a0,84(sp)
    2274:	5352                	lw	t1,52(sp)
    2276:	4f49                	li	t5,18
    2278:	204e                	fld	ft0,208(sp)
    227a:	3031                	jal	1a86 <__Vectors-0x3fe57a>
    227c:	3331                	jal	1f88 <__Vectors-0x3fe078>
    227e:	7200                	flw	fs0,32(a2)
    2280:	6765                	lui	a4,0x19
    2282:	725f3233          	0x725f3233
    2286:	6165                	addi	sp,sp,112
    2288:	2864                	fld	fs1,208(s0)
    228a:	2972                	fld	fs2,280(sp)
    228c:	2820                	fld	fs0,80(s0)
    228e:	282a                	fld	fa6,136(sp)
    2290:	6572                	flw	fa0,28(sp)
    2292:	5f323367          	0x5f323367
    2296:	2074                	fld	fa3,192(s0)
    2298:	292a                	fld	fs2,136(sp)
    229a:	7228                	flw	fa0,96(a2)
    229c:	2929                	jal	26b6 <__Vectors-0x3fd94a>
    229e:	5f00                	lw	s0,56(a4)
    22a0:	495f 544e 465f      	0x465f544e495f
    22a6:	5341                	li	t1,-16
    22a8:	3154                	fld	fa3,160(a0)
    22aa:	5f36                	lw	t5,108(sp)
    22ac:	414d                	li	sp,19
    22ae:	5f58                	lw	a4,60(a4)
    22b0:	205f 7830 6637      	0x66377830205f
    22b6:	6666                	flw	fa2,88(sp)
    22b8:	6666                	flw	fa2,88(sp)
    22ba:	6666                	flw	fa2,88(sp)
    22bc:	5f00                	lw	s0,56(a4)
    22be:	535f 4749 415f      	0x415f4749535f
    22c4:	4f54                	lw	a3,28(a4)
    22c6:	494d                	li	s2,19
    22c8:	494d5f43          	fmadd.s	ft10,fs10,fs4,fs1,unknown
    22cc:	5f4e                	lw	t5,240(sp)
    22ce:	205f 2d28 5f5f      	0x5f5f2d28205f
    22d4:	5f474953          	0x5f474953
    22d8:	5441                	li	s0,-16
    22da:	43494d4f          	fnmadd.d	fs10,fs2,fs4,fs0,rmm
    22de:	4d5f 5841 5f5f      	0x5f5f58414d5f
    22e4:	2d20                	fld	fs0,88(a0)
    22e6:	3120                	fld	fs0,96(a0)
    22e8:	0029                	c.nop	10
    22ea:	5f5f 4e49 5f54      	0x5f544e495f5f
    22f0:	4146                	lw	sp,80(sp)
    22f2:	34365453          	0x34365453
    22f6:	575f 4449 4854      	0x48544449575f
    22fc:	5f5f 3620 0034      	0x3436205f5f
    2302:	5f5f 4544 3343      	0x334345445f5f
    2308:	5f32                	lw	t5,44(sp)
    230a:	5045                	c.li	zero,-15
    230c:	4f4c4953          	0x4f4c4953
    2310:	5f4e                	lw	t5,240(sp)
    2312:	205f 4531 362d      	0x362d4531205f
    2318:	4644                	lw	s1,12(a2)
    231a:	5f00                	lw	s0,56(a4)
    231c:	465f 544c 3231      	0x3231544c465f
    2322:	5f38                	lw	a4,120(a4)
    2324:	494d                	li	s2,19
    2326:	5f4e                	lw	t5,240(sp)
    2328:	205f 2e33 3633      	0x36332e33205f
    232e:	3132                	fld	ft2,296(sp)
    2330:	3330                	fld	fa2,96(a4)
    2332:	3431                	jal	1d3e <__Vectors-0x3fe2c2>
    2334:	32313133          	0x32313133
    2338:	3930                	fld	fa2,112(a0)
    233a:	36303533          	0x36303533
    233e:	3632                	fld	fa2,296(sp)
    2340:	3632                	fld	fa2,296(sp)
    2342:	31383737          	lui	a4,0x31383
    2346:	31323337          	lui	t1,0x31323
    234a:	36323537          	lui	a0,0x36323
    234e:	6530                	flw	fa2,72(a0)
    2350:	342d                	jal	1d7a <__Vectors-0x3fe286>
    2352:	3339                	jal	2060 <__Vectors-0x3fdfa0>
    2354:	4632                	lw	a2,12(sp)
    2356:	3231                	jal	1c62 <__Vectors-0x3fe39e>
    2358:	0038                	addi	a4,sp,8
    235a:	5f5f 4e49 5f54      	0x5f544e495f5f
    2360:	4146                	lw	sp,80(sp)
    2362:	32335453          	0x32335453
    2366:	545f 5059 5f45      	0x5f455059545f
    236c:	205f 6e69 0074      	0x746e69205f
    2372:	5f5f 4c46 3354      	0x33544c465f5f
    2378:	5f32                	lw	t5,44(sp)
    237a:	4544                	lw	s1,12(a0)
    237c:	4f4e                	lw	t5,208(sp)
    237e:	4d52                	lw	s10,20(sp)
    2380:	4d5f 4e49 5f5f      	0x5f5f4e494d5f
    2386:	3120                	fld	fs0,96(a0)
    2388:	342e                	fld	fs0,232(sp)
    238a:	3130                	fld	fa2,96(a0)
    238c:	3932                	fld	fs2,296(sp)
    238e:	3438                	fld	fa4,104(s0)
    2390:	3436                	fld	fs0,360(sp)
    2392:	38343233          	0x38343233
    2396:	3731                	jal	22a2 <__Vectors-0x3fdd5e>
    2398:	3730                	fld	fa2,104(a4)
    239a:	3930                	fld	fa2,112(a0)
    239c:	3332                	fld	ft6,296(sp)
    239e:	35393237          	lui	tp,0x35393
    23a2:	3338                	fld	fa4,96(a4)
    23a4:	3832                	fld	fa6,296(sp)
    23a6:	3939                	jal	1fc4 <__Vectors-0x3fe03c>
    23a8:	3631                	jal	1eb4 <__Vectors-0x3fe14c>
    23aa:	3331                	jal	20b6 <__Vectors-0x3fdf4a>
    23ac:	2d65                	jal	2a64 <__Vectors-0x3fd59c>
    23ae:	3534                	fld	fa3,104(a0)
    23b0:	3346                	fld	ft6,112(sp)
    23b2:	0032                	c.slli	zero,0xc
    23b4:	5f5f 4955 544e      	0x544e49555f5f
    23ba:	465f 5341 3154      	0x31545341465f
    23c0:	5f36                	lw	t5,108(sp)
    23c2:	5954                	lw	a3,52(a0)
    23c4:	4550                	lw	a2,12(a0)
    23c6:	5f5f 7520 736e      	0x736e75205f5f
    23cc:	6769                	lui	a4,0x1a
    23ce:	656e                	flw	fa0,216(sp)
    23d0:	2064                	fld	fs1,192(s0)
    23d2:	6e69                	lui	t3,0x1a
    23d4:	0074                	addi	a3,sp,12
    23d6:	5f5f 4c46 3654      	0x36544c465f5f
    23dc:	5f34                	lw	a3,120(a4)
    23de:	4944                	lw	s1,20(a0)
    23e0:	205f5f47          	fmsub.s	ft10,ft10,ft5,ft4,unknown
    23e4:	3531                	jal	21f0 <__Vectors-0x3fde10>
    23e6:	5f00                	lw	s0,56(a4)
    23e8:	725f 7369 7663      	0x76637369725f
    23ee:	3120                	fld	fs0,96(a0)
    23f0:	5f00                	lw	s0,56(a4)
    23f2:	475f 4343 415f      	0x415f4343475f
    23f8:	4f54                	lw	a3,28(a4)
    23fa:	494d                	li	s2,19
    23fc:	4f4c5f43          	fmadd.q	ft10,fs8,fs4,fs1,unknown
    2400:	474e                	lw	a4,208(sp)
    2402:	4c5f 434f 5f4b      	0x5f4b434f4c5f
    2408:	5246                	lw	tp,112(sp)
    240a:	4545                	li	a0,17
    240c:	3120                	fld	fs0,96(a0)
    240e:	7200                	flw	fs0,32(a2)
    2410:	6765                	lui	a4,0x19
    2412:	3631                	jal	1f1e <__Vectors-0x3fe0e2>
    2414:	725f 6165 2864      	0x28646165725f
    241a:	2972                	fld	fs2,280(sp)
    241c:	2820                	fld	fs0,80(s0)
    241e:	282a                	fld	fa6,136(sp)
    2420:	6572                	flw	fa0,28(sp)
    2422:	5f363167          	0x5f363167
    2426:	2074                	fld	fa3,192(s0)
    2428:	292a                	fld	fs2,136(sp)
    242a:	7228                	flw	fa0,96(a2)
    242c:	2929                	jal	2846 <__Vectors-0x3fd7ba>
    242e:	5f00                	lw	s0,56(a4)
    2430:	445f 4c42 4d5f      	0x4d5f4c42445f
    2436:	5841                	li	a6,-16
    2438:	5f5f 2820 6428      	0x642828205f5f
    243e:	6c62756f          	jal	a0,29b04 <__Vectors-0x3d64fc>
    2442:	2965                	jal	28fa <__Vectors-0x3fd706>
    2444:	2e31                	jal	2760 <__Vectors-0x3fd8a0>
    2446:	36373937          	lui	s2,0x36373
    244a:	3339                	jal	2158 <__Vectors-0x3fdea8>
    244c:	3331                	jal	2158 <__Vectors-0x3fdea8>
    244e:	3834                	fld	fa3,112(s0)
    2450:	3236                	fld	ft4,360(sp)
    2452:	37353133          	0x37353133
    2456:	3830                	fld	fa2,112(s0)
    2458:	3431                	jal	1e64 <__Vectors-0x3fe19c>
    245a:	3235                	jal	1d86 <__Vectors-0x3fe27a>
    245c:	33323437          	lui	s0,0x33323
    2460:	37313337          	lui	t1,0x37313
    2464:	3430                	fld	fa2,104(s0)
    2466:	65373533          	0x65373533
    246a:	3830332b          	0x3830332b
    246e:	294c                	fld	fa1,144(a0)
    2470:	5f00                	lw	s0,56(a4)
    2472:	465f 544c 3436      	0x3436544c465f
    2478:	5f58                	lw	a4,60(a4)
    247a:	4944                	lw	s1,20(a0)
    247c:	205f5f47          	fmsub.s	ft10,ft10,ft5,ft4,unknown
    2480:	5f003333          	0x5f003333
    2484:	495f 544e 5f38      	0x5f38544e495f
    248a:	414d                	li	sp,19
    248c:	5f58                	lw	a4,60(a4)
    248e:	205f 7830 6637      	0x66377830205f
    2494:	5f00                	lw	s0,56(a4)
    2496:	445f 4c42 485f      	0x485f4c42445f
    249c:	5341                	li	t1,-16
    249e:	515f 4955 5445      	0x54454955515f
    24a4:	4e5f 4e41 5f5f      	0x5f5f4e414e5f
    24aa:	3120                	fld	fs0,96(a0)
    24ac:	5f00                	lw	s0,56(a4)
    24ae:	465f 544c 4d5f      	0x4d5f544c465f
    24b4:	4e49                	li	t3,18
    24b6:	315f 5f30 5845      	0x58455f30315f
    24bc:	5f50                	lw	a2,60(a4)
    24be:	205f 2d28 3733      	0x37332d28205f
    24c4:	0029                	c.nop	10
    24c6:	5f5f 4e49 5f54      	0x5f544e495f5f
    24cc:	4146                	lw	sp,80(sp)
    24ce:	5f385453          	0x5f385453
    24d2:	54444957          	0x54444957
    24d6:	5f48                	lw	a0,60(a4)
    24d8:	205f 3233 5f00      	0x5f003233205f
    24de:	415f 4f54 494d      	0x494d4f54415f
    24e4:	43415f43          	fmadd.d	ft10,ft2,fs4,fs0,unknown
    24e8:	5f51                	li	t5,-12
    24ea:	4552                	lw	a0,20(sp)
    24ec:	204c                	fld	fa1,128(s0)
    24ee:	0034                	addi	a3,sp,8
    24f0:	20554e47          	fmsub.s	ft8,fa0,ft5,ft4,rmm
    24f4:	20373143          	fmadd.s	ft2,fa4,ft3,ft4,rup
    24f8:	2e38                	fld	fa4,88(a2)
    24fa:	2e34                	fld	fa3,88(a2)
    24fc:	2030                	fld	fa2,64(s0)
    24fe:	6d2d                	lui	s10,0xb
    2500:	6261                	lui	tp,0x18
    2502:	3d69                	jal	239c <__Vectors-0x3fdc64>
    2504:	6c69                	lui	s8,0x1a
    2506:	3370                	fld	fa2,224(a4)
    2508:	6532                	flw	fa0,12(sp)
    250a:	2d20                	fld	fs0,88(a0)
    250c:	616d                	addi	sp,sp,240
    250e:	6372                	flw	ft6,28(sp)
    2510:	3d68                	fld	fa0,248(a0)
    2512:	7672                	flw	fa2,60(sp)
    2514:	63653233          	0x63653233
    2518:	7478                	flw	fa4,108(s0)
    251a:	6568                	flw	fa0,76(a0)
    251c:	6461                	lui	s0,0x18
    251e:	2d20                	fld	fs0,88(a0)
    2520:	2d203367          	0x2d203367
    2524:	5f00674f          	fnmadd.q	fa4,ft0,fa6,fa1,unknown
    2528:	725f 7369 7663      	0x76637369725f
    252e:	785f 656c 206e      	0x206e656c785f
    2534:	5f003233          	0x5f003233
    2538:	465f 4e49 5449      	0x54494e49465f
    253e:	5f45                	li	t5,-15
    2540:	414d                	li	sp,19
    2542:	4854                	lw	a3,20(s0)
    2544:	4f5f 4c4e 5f59      	0x5f594c4e4f5f
    254a:	205f 0030 5f5f      	0x5f5f0030205f
    2550:	4f4c                	lw	a1,28(a4)
    2552:	474e                	lw	a4,208(sp)
    2554:	4d5f 5841 5f5f      	0x5f5f58414d5f
    255a:	3020                	fld	fs0,96(s0)
    255c:	3778                	fld	fa4,232(a4)
    255e:	6666                	flw	fa2,88(sp)
    2560:	6666                	flw	fa2,88(sp)
    2562:	6666                	flw	fa2,88(sp)
    2564:	4c66                	lw	s8,88(sp)
    2566:	5f00                	lw	s0,56(a4)
    2568:	505f 5254 4944      	0x49445254505f
    256e:	4646                	lw	a2,80(sp)
    2570:	575f 4449 4854      	0x48544449575f
    2576:	5f5f 3320 0032      	0x3233205f5f
    257c:	5f5f 5355 5245      	0x524553555f5f
    2582:	4c5f 4241 4c45      	0x4c4542414c5f
    2588:	505f 4552 4946      	0x49464552505f
    258e:	5f58                	lw	a4,60(a4)
    2590:	205f 5f00 465f      	0x465f5f00205f
    2596:	544c                	lw	a1,44(s0)
    2598:	3436                	fld	fs0,360(sp)
    259a:	5f58                	lw	a4,60(a4)
    259c:	414d                	li	sp,19
    259e:	5f58                	lw	a4,60(a4)
    25a0:	5845                	li	a6,-15
    25a2:	5f50                	lw	a2,60(a4)
    25a4:	205f 3631 3833      	0x38333631205f
    25aa:	0034                	addi	a3,sp,8
    25ac:	5f5f 4c46 3354      	0x33544c465f5f
    25b2:	5f32                	lw	t5,44(sp)
    25b4:	494d                	li	s2,19
    25b6:	5f4e                	lw	t5,240(sp)
    25b8:	5845                	li	a6,-15
    25ba:	5f50                	lw	a2,60(a4)
    25bc:	205f 2d28 3231      	0x32312d28205f
    25c2:	2935                	jal	29fe <__Vectors-0x3fd602>
    25c4:	5f00                	lw	s0,56(a4)
    25c6:	465f 544c 3231      	0x3231544c465f
    25cc:	5f38                	lw	a4,120(a4)
    25ce:	414d                	li	sp,19
    25d0:	5f58                	lw	a4,60(a4)
    25d2:	3031                	jal	1dde <__Vectors-0x3fe222>
    25d4:	455f 5058 5f5f      	0x5f5f5058455f
    25da:	3420                	fld	fs0,104(s0)
    25dc:	3339                	jal	22ea <__Vectors-0x3fdd16>
    25de:	0032                	c.slli	zero,0xc
    25e0:	5f5f 4955 544e      	0x544e49555f5f
    25e6:	465f 5341 3654      	0x36545341465f
    25ec:	5f34                	lw	a3,120(a4)
    25ee:	5954                	lw	a3,52(a0)
    25f0:	4550                	lw	a2,12(a0)
    25f2:	5f5f 6c20 6e6f      	0x6e6f6c205f5f
    25f8:	6f6c2067          	0x6f6c2067
    25fc:	676e                	flw	fa4,216(sp)
    25fe:	7520                	flw	fs0,104(a0)
    2600:	736e                	flw	ft6,248(sp)
    2602:	6769                	lui	a4,0x1a
    2604:	656e                	flw	fa0,216(sp)
    2606:	2064                	fld	fs1,192(s0)
    2608:	6e69                	lui	t3,0x1a
    260a:	0074                	addi	a3,sp,12
    260c:	5f5f 4955 544e      	0x544e49555f5f
    2612:	5f38                	lw	a4,120(a4)
    2614:	29632843          	fmadd.s	fa6,ft6,fs6,ft5,rdn
    2618:	6320                	flw	fs0,64(a4)
    261a:	5f00                	lw	s0,56(a4)
    261c:	465f 544c 3231      	0x3231544c465f
    2622:	5f38                	lw	a4,120(a4)
    2624:	4944                	lw	s1,20(a0)
    2626:	205f5f47          	fmsub.s	ft10,ft10,ft5,ft4,unknown
    262a:	5f003333          	0x5f003333
    262e:	555f 4e49 5f54      	0x5f544e49555f
    2634:	454c                	lw	a1,12(a0)
    2636:	5341                	li	t1,-16
    2638:	3854                	fld	fa3,176(s0)
    263a:	545f 5059 5f45      	0x5f455059545f
    2640:	205f 6e75 6973      	0x69736e75205f
    2646:	64656e67          	0x64656e67
    264a:	6320                	flw	fs0,64(a4)
    264c:	6168                	flw	fa0,68(a0)
    264e:	0072                	c.slli	zero,0x1c
    2650:	5f5f 4e49 5f54      	0x5f544e495f5f
    2656:	454c                	lw	a1,12(a0)
    2658:	5341                	li	t1,-16
    265a:	3654                	fld	fa3,168(a2)
    265c:	5f34                	lw	a3,120(a4)
    265e:	54444957          	0x54444957
    2662:	5f48                	lw	a0,60(a4)
    2664:	205f 3436 5f00      	0x5f003436205f
    266a:	495f 544e 3233      	0x3233544e495f
    2670:	4d5f 5841 5f5f      	0x5f5f58414d5f
    2676:	3020                	fld	fs0,96(s0)
    2678:	3778                	fld	fa4,232(a4)
    267a:	6666                	flw	fa2,88(sp)
    267c:	6666                	flw	fa2,88(sp)
    267e:	6666                	flw	fa2,88(sp)
    2680:	4c66                	lw	s8,88(sp)
    2682:	6d00                	flw	fs0,24(a0)
    2684:	6961                	lui	s2,0x18
    2686:	006e                	c.slli	zero,0x1b
    2688:	5f5f 4c46 3354      	0x33544c465f5f
    268e:	5832                	lw	a6,44(sp)
    2690:	4d5f 4e49 455f      	0x455f4e494d5f
    2696:	5058                	lw	a4,36(s0)
    2698:	5f5f 2820 312d      	0x312d28205f5f
    269e:	3230                	fld	fa2,96(a2)
    26a0:	2931                	jal	2abc <__Vectors-0x3fd544>
    26a2:	5f00                	lw	s0,56(a4)
    26a4:	475f 4343 415f      	0x415f4343475f
    26aa:	4f54                	lw	a3,28(a4)
    26ac:	494d                	li	s2,19
    26ae:	4f505f43          	fmadd.q	ft10,ft0,fs5,fs1,unknown
    26b2:	4e49                	li	t3,18
    26b4:	4554                	lw	a3,12(a0)
    26b6:	5f52                	lw	t5,52(sp)
    26b8:	4f4c                	lw	a1,28(a4)
    26ba:	465f4b43          	fmadd.q	fs6,ft10,ft5,fs0,rmm
    26be:	4552                	lw	a0,20(sp)
    26c0:	2045                	jal	2760 <__Vectors-0x3fd8a0>
    26c2:	0031                	c.nop	12
    26c4:	5f5f 4e49 5f54      	0x5f544e495f5f
    26ca:	454c                	lw	a1,12(a0)
    26cc:	5341                	li	t1,-16
    26ce:	3854                	fld	fa3,176(s0)
    26d0:	4d5f 5841 5f5f      	0x5f5f58414d5f
    26d6:	3020                	fld	fs0,96(s0)
    26d8:	3778                	fld	fa4,232(a4)
    26da:	0066                	c.slli	zero,0x19
    26dc:	5f5f 4347 5f43      	0x5f4343475f5f
    26e2:	5441                	li	s0,-16
    26e4:	43494d4f          	fnmadd.d	fs10,fs2,fs4,fs0,rmm
    26e8:	425f 4f4f 5f4c      	0x5f4c4f4f425f
    26ee:	4f4c                	lw	a1,28(a4)
    26f0:	465f4b43          	fmadd.q	fs6,ft10,ft5,fs0,rmm
    26f4:	4552                	lw	a0,20(sp)
    26f6:	2045                	jal	2796 <__Vectors-0x3fd86a>
    26f8:	0031                	c.nop	12
    26fa:	5f5f 4955 544e      	0x544e49555f5f
    2700:	4c5f 4145 5453      	0x545341454c5f
    2706:	3436                	fld	fs0,360(sp)
    2708:	4d5f 5841 5f5f      	0x5f5f58414d5f
    270e:	3020                	fld	fs0,96(s0)
    2710:	6678                	flw	fa4,76(a2)
    2712:	6666                	flw	fa2,88(sp)
    2714:	6666                	flw	fa2,88(sp)
    2716:	6666                	flw	fa2,88(sp)
    2718:	6666                	flw	fa2,88(sp)
    271a:	6666                	flw	fa2,88(sp)
    271c:	6666                	flw	fa2,88(sp)
    271e:	6666                	flw	fa2,88(sp)
    2720:	5566                	lw	a0,120(sp)
    2722:	4c4c                	lw	a1,28(s0)
    2724:	5f00                	lw	s0,56(a4)
    2726:	445f 4c42 4d5f      	0x4d5f4c42445f
    272c:	4e49                	li	t3,18
    272e:	315f 5f30 5845      	0x58455f30315f
    2734:	5f50                	lw	a2,60(a4)
    2736:	205f 2d28 3033      	0x30332d28205f
    273c:	5f002937          	lui	s2,0x5f002
    2740:	475f 554e 5f43      	0x5f43554e475f
    2746:	43445453          	0x43445453
    274a:	495f 4c4e 4e49      	0x4e494c4e495f
    2750:	5f45                	li	t5,-15
    2752:	205f 0031 5f5f      	0x5f5f0031205f
    2758:	4c46                	lw	s8,80(sp)
    275a:	3654                	fld	fa3,168(a2)
    275c:	5f34                	lw	a3,120(a4)
    275e:	414d                	li	sp,19
    2760:	5f58                	lw	a4,60(a4)
    2762:	3031                	jal	1f6e <__Vectors-0x3fe092>
    2764:	455f 5058 5f5f      	0x5f5f5058455f
    276a:	3320                	fld	fs0,96(a4)
    276c:	3830                	fld	fa2,112(s0)
    276e:	5f00                	lw	s0,56(a4)
    2770:	465f 544c 3436      	0x3436544c465f
    2776:	4d5f 4e49 455f      	0x455f4e494d5f
    277c:	5058                	lw	a4,36(s0)
    277e:	5f5f 2820 312d      	0x312d28205f5f
    2784:	3230                	fld	fa2,96(a2)
    2786:	2931                	jal	2ba2 <__Vectors-0x3fd45e>
	...

Disassembly of section .debug_macro:

00000000 <.debug_macro>:
   0:	0004                	0x4
   2:	8602                	jr	a2
   4:	0000                	unimp
   6:	0700                	addi	s0,sp,896
   8:	0029                	c.nop	10
   a:	0000                	unimp
   c:	03010003          	lb	zero,48(sp)
  10:	0309                	addi	t1,t1,2
  12:	0205                	addi	tp,tp,1
  14:	0dec                	addi	a1,sp,732
  16:	0000                	unimp
  18:	07020403          	lb	s0,112(tp) # 18070 <__Vectors-0x3e7f90>
  1c:	00000777          	0x777
  20:	0704                	addi	s1,sp,896
  22:	00000787          	vlbu.v	v15,(zero),v0.t
  26:	0404                	addi	s1,sp,512
  28:	0400                	addi	s0,sp,512
  2a:	0000                	unimp
  2c:	0005                	c.nop	1
  2e:	00001c27          	fsh	ft0,24(zero) # 18 <__Vectors-0x3fffe8>
  32:	0005                	c.nop	1
  34:	00000493          	li	s1,0
  38:	0005                	c.nop	1
  3a:	1fb4                	addi	a3,sp,1016
  3c:	0000                	unimp
  3e:	0005                	c.nop	1
  40:	00002137          	lui	sp,0x2
  44:	0005                	c.nop	1
  46:	0561                	addi	a0,a0,24
  48:	0000                	unimp
  4a:	0005                	c.nop	1
  4c:	1566                	slli	a0,a0,0x39
  4e:	0000                	unimp
  50:	0005                	c.nop	1
  52:	0e81                	addi	t4,t4,0
  54:	0000                	unimp
  56:	0005                	c.nop	1
  58:	129c                	addi	a5,sp,352
  5a:	0000                	unimp
  5c:	0005                	c.nop	1
  5e:	1836                	slli	a6,a6,0x2d
  60:	0000                	unimp
  62:	0005                	c.nop	1
  64:	00001ca7          	fsh	ft0,25(zero) # 19 <__Vectors-0x3fffe7>
  68:	0005                	c.nop	1
  6a:	02dd                	addi	t0,t0,23
  6c:	0000                	unimp
  6e:	0005                	c.nop	1
  70:	172c                	addi	a1,sp,936
  72:	0000                	unimp
  74:	0005                	c.nop	1
  76:	12b2                	slli	t0,t0,0x2c
  78:	0000                	unimp
  7a:	0005                	c.nop	1
  7c:	24dd                	jal	362 <__Vectors-0x3ffc9e>
  7e:	0000                	unimp
  80:	0005                	c.nop	1
  82:	210c                	fld	fa1,0(a0)
  84:	0000                	unimp
  86:	0005                	c.nop	1
  88:	00002187          	flw	ft3,0(zero) # 0 <__Vectors-0x400000>
  8c:	0005                	c.nop	1
  8e:	00002537          	lui	a0,0x2
  92:	0005                	c.nop	1
  94:	13e5                	addi	t2,t2,-7
  96:	0000                	unimp
  98:	0005                	c.nop	1
  9a:	1f82                	slli	t6,t6,0x20
  9c:	0000                	unimp
  9e:	0005                	c.nop	1
  a0:	0d26                	slli	s10,s10,0x9
  a2:	0000                	unimp
  a4:	0005                	c.nop	1
  a6:	1106                	slli	sp,sp,0x21
  a8:	0000                	unimp
  aa:	0005                	c.nop	1
  ac:	1b81                	addi	s7,s7,-32
  ae:	0000                	unimp
  b0:	0005                	c.nop	1
  b2:	00000b97          	auipc	s7,0x0
  b6:	0005                	c.nop	1
  b8:	0dd2                	slli	s11,s11,0x14
  ba:	0000                	unimp
  bc:	0005                	c.nop	1
  be:	0094                	addi	a3,sp,64
  c0:	0000                	unimp
  c2:	0005                	c.nop	1
  c4:	046d                	addi	s0,s0,27
  c6:	0000                	unimp
  c8:	0005                	c.nop	1
  ca:	13cc                	addi	a1,sp,484
  cc:	0000                	unimp
  ce:	0005                	c.nop	1
  d0:	1c4c                	addi	a1,sp,564
  d2:	0000                	unimp
  d4:	0005                	c.nop	1
  d6:	1086                	slli	ra,ra,0x21
  d8:	0000                	unimp
  da:	0005                	c.nop	1
  dc:	1c32                	slli	s8,s8,0x2c
  de:	0000                	unimp
  e0:	0005                	c.nop	1
  e2:	09e4                	addi	s1,sp,220
  e4:	0000                	unimp
  e6:	0005                	c.nop	1
  e8:	0a3c                	addi	a5,sp,280
  ea:	0000                	unimp
  ec:	0005                	c.nop	1
  ee:	0155                	addi	sp,sp,21
  f0:	0000                	unimp
  f2:	0005                	c.nop	1
  f4:	0681                	addi	a3,a3,0
  f6:	0000                	unimp
  f8:	0005                	c.nop	1
  fa:	00002023          	sw	zero,0(zero) # 0 <__Vectors-0x400000>
  fe:	0005                	c.nop	1
 100:	126d                	addi	tp,tp,-5
 102:	0000                	unimp
 104:	0005                	c.nop	1
 106:	1c69                	addi	s8,s8,-6
 108:	0000                	unimp
 10a:	0005                	c.nop	1
 10c:	000010cb          	fnmsub.s	ft1,ft0,ft0,ft0,rtz
 110:	0005                	c.nop	1
 112:	0ca2                	slli	s9,s9,0x8
 114:	0000                	unimp
 116:	0005                	c.nop	1
 118:	10a0                	addi	s0,sp,104
 11a:	0000                	unimp
 11c:	0005                	c.nop	1
 11e:	03e6                	slli	t2,t2,0x19
 120:	0000                	unimp
 122:	0005                	c.nop	1
 124:	0838                	addi	a4,sp,24
 126:	0000                	unimp
 128:	0005                	c.nop	1
 12a:	09ca                	slli	s3,s3,0x12
 12c:	0000                	unimp
 12e:	0005                	c.nop	1
 130:	1f69                	addi	t5,t5,-6
 132:	0000                	unimp
 134:	0005                	c.nop	1
 136:	0aa5                	addi	s5,s5,9
 138:	0000                	unimp
 13a:	0005                	c.nop	1
 13c:	00a8                	addi	a0,sp,72
 13e:	0000                	unimp
 140:	0005                	c.nop	1
 142:	0000081b          	0x81b
 146:	0005                	c.nop	1
 148:	2149                	jal	5ca <__Vectors-0x3ffa36>
 14a:	0000                	unimp
 14c:	0005                	c.nop	1
 14e:	18f9                	addi	a7,a7,-2
 150:	0000                	unimp
 152:	0005                	c.nop	1
 154:	024d                	addi	tp,tp,19
 156:	0000                	unimp
 158:	0005                	c.nop	1
 15a:	1b1d                	addi	s6,s6,-25
 15c:	0000                	unimp
 15e:	0005                	c.nop	1
 160:	0abd                	addi	s5,s5,15
 162:	0000                	unimp
 164:	0005                	c.nop	1
 166:	1951                	addi	s2,s2,-12
 168:	0000                	unimp
 16a:	0005                	c.nop	1
 16c:	1c84                	addi	s1,sp,624
 16e:	0000                	unimp
 170:	0005                	c.nop	1
 172:	262d                	jal	49c <__Vectors-0x3ffb64>
 174:	0000                	unimp
 176:	0005                	c.nop	1
 178:	0000165b          	0x165b
 17c:	0005                	c.nop	1
 17e:	016a                	slli	sp,sp,0x1a
 180:	0000                	unimp
 182:	0005                	c.nop	1
 184:	072c                	addi	a1,sp,904
 186:	0000                	unimp
 188:	0005                	c.nop	1
 18a:	0000154f          	fnmadd.s	fa0,ft0,ft0,ft0,rtz
 18e:	0005                	c.nop	1
 190:	0adc                	addi	a5,sp,340
 192:	0000                	unimp
 194:	0005                	c.nop	1
 196:	235a                	fld	ft6,400(sp)
 198:	0000                	unimp
 19a:	0005                	c.nop	1
 19c:	1391                	addi	t2,t2,-28
 19e:	0000                	unimp
 1a0:	0005                	c.nop	1
 1a2:	2002                	fld	ft0,0(sp)
 1a4:	0000                	unimp
 1a6:	0005                	c.nop	1
 1a8:	23b4                	fld	fa3,64(a5)
 1aa:	0000                	unimp
 1ac:	0005                	c.nop	1
 1ae:	1862                	slli	a6,a6,0x38
 1b0:	0000                	unimp
 1b2:	0005                	c.nop	1
 1b4:	25e0                	fld	fs0,200(a1)
 1b6:	0000                	unimp
 1b8:	0005                	c.nop	1
 1ba:	0000079b          	0x79b
 1be:	0005                	c.nop	1
 1c0:	1e5f 0000 0005      	0x500001e5f
 1c6:	2070                	fld	fa2,192(s0)
 1c8:	0000                	unimp
 1ca:	0005                	c.nop	1
 1cc:	0000021b          	0x21b
 1d0:	0005                	c.nop	1
 1d2:	2268                	fld	fa0,192(a2)
 1d4:	0000                	unimp
 1d6:	0005                	c.nop	1
 1d8:	1280                	addi	s0,sp,352
 1da:	0000                	unimp
 1dc:	0005                	c.nop	1
 1de:	1b4d                	addi	s6,s6,-13
 1e0:	0000                	unimp
 1e2:	0005                	c.nop	1
 1e4:	123e                	slli	tp,tp,0x2f
 1e6:	0000                	unimp
 1e8:	0005                	c.nop	1
 1ea:	254e                	fld	fa0,208(sp)
 1ec:	0000                	unimp
 1ee:	0005                	c.nop	1
 1f0:	0ed2                	slli	t4,t4,0x14
 1f2:	0000                	unimp
 1f4:	0005                	c.nop	1
 1f6:	1bc8                	addi	a0,sp,500
 1f8:	0000                	unimp
 1fa:	0005                	c.nop	1
 1fc:	1a01                	addi	s4,s4,-32
 1fe:	0000                	unimp
 200:	0005                	c.nop	1
 202:	0668                	addi	a0,sp,780
 204:	0000                	unimp
 206:	0005                	c.nop	1
 208:	0dc2                	slli	s11,s11,0x10
 20a:	0000                	unimp
 20c:	0005                	c.nop	1
 20e:	1aec                	addi	a1,sp,380
 210:	0000                	unimp
 212:	0005                	c.nop	1
 214:	0bc8                	addi	a0,sp,468
 216:	0000                	unimp
 218:	0005                	c.nop	1
 21a:	000006e7          	jalr	a3,zero # 0 <__Vectors-0x400000>
 21e:	0005                	c.nop	1
 220:	07f4                	addi	a3,sp,972
 222:	0000                	unimp
 224:	0005                	c.nop	1
 226:	1502                	slli	a0,a0,0x20
 228:	0000                	unimp
 22a:	0005                	c.nop	1
 22c:	00000a0b          	0xa0b
 230:	0005                	c.nop	1
 232:	1ef1                	addi	t4,t4,-4
 234:	0000                	unimp
 236:	0005                	c.nop	1
 238:	0192                	slli	gp,gp,0x4
 23a:	0000                	unimp
 23c:	0005                	c.nop	1
 23e:	19d5                	addi	s3,s3,-11
 240:	0000                	unimp
 242:	0005                	c.nop	1
 244:	00002567          	0x2567
 248:	0005                	c.nop	1
 24a:	0c52                	slli	s8,s8,0x14
 24c:	0000                	unimp
 24e:	0005                	c.nop	1
 250:	0af4                	addi	a3,sp,348
 252:	0000                	unimp
 254:	0005                	c.nop	1
 256:	00001a9b          	0x1a9b
 25a:	0005                	c.nop	1
 25c:	1771                	addi	a4,a4,-4
 25e:	0000                	unimp
 260:	0005                	c.nop	1
 262:	01e6                	slli	gp,gp,0x19
 264:	0000                	unimp
 266:	0005                	c.nop	1
 268:	00001527          	fsh	ft0,10(zero) # a <__Vectors-0x3ffff6>
 26c:	0005                	c.nop	1
 26e:	00001e0f          	0x1e0f
 272:	0005                	c.nop	1
 274:	22bd                	jal	3e2 <__Vectors-0x3ffc1e>
 276:	0000                	unimp
 278:	0005                	c.nop	1
 27a:	0cca                	slli	s9,s9,0x12
 27c:	0000                	unimp
 27e:	0005                	c.nop	1
 280:	00002483          	lw	s1,0(zero) # 0 <__Vectors-0x400000>
 284:	0005                	c.nop	1
 286:	1441                	addi	s0,s0,-16
 288:	0000                	unimp
 28a:	0005                	c.nop	1
 28c:	2669                	jal	616 <__Vectors-0x3ff9ea>
 28e:	0000                	unimp
 290:	0005                	c.nop	1
 292:	0f59                	addi	t5,t5,22
 294:	0000                	unimp
 296:	0005                	c.nop	1
 298:	0bb5                	addi	s7,s7,13
 29a:	0000                	unimp
 29c:	0005                	c.nop	1
 29e:	09b4                	addi	a3,sp,216
 2a0:	0000                	unimp
 2a2:	0005                	c.nop	1
 2a4:	1590                	addi	a2,sp,736
 2a6:	0000                	unimp
 2a8:	0005                	c.nop	1
 2aa:	00000e43          	fmadd.s	ft8,ft0,ft0,ft0,rne
 2ae:	0005                	c.nop	1
 2b0:	26c4                	fld	fs1,136(a3)
 2b2:	0000                	unimp
 2b4:	0005                	c.nop	1
 2b6:	0dfa                	slli	s11,s11,0x1e
 2b8:	0000                	unimp
 2ba:	0005                	c.nop	1
 2bc:	1644                	addi	s1,sp,804
 2be:	0000                	unimp
 2c0:	0005                	c.nop	1
 2c2:	0000196f          	jal	s2,12c2 <__Vectors-0x3fed3e>
 2c6:	0005                	c.nop	1
 2c8:	1188                	addi	a0,sp,224
 2ca:	0000                	unimp
 2cc:	0005                	c.nop	1
 2ce:	000008a3          	sb	zero,17(zero) # 11 <__Vectors-0x3fffef>
 2d2:	0005                	c.nop	1
 2d4:	1ccd                	addi	s9,s9,-13
 2d6:	0000                	unimp
 2d8:	0005                	c.nop	1
 2da:	00000c13          	li	s8,0
 2de:	0005                	c.nop	1
 2e0:	03cd                	addi	t2,t2,19
 2e2:	0000                	unimp
 2e4:	0005                	c.nop	1
 2e6:	000007af          	0x7af
 2ea:	0005                	c.nop	1
 2ec:	0140                	addi	s0,sp,132
 2ee:	0000                	unimp
 2f0:	0005                	c.nop	1
 2f2:	2650                	fld	fa2,136(a2)
 2f4:	0000                	unimp
 2f6:	0005                	c.nop	1
 2f8:	13f6                	slli	t2,t2,0x3d
 2fa:	0000                	unimp
 2fc:	0005                	c.nop	1
 2fe:	260c                	fld	fa1,8(a2)
 300:	0000                	unimp
 302:	0005                	c.nop	1
 304:	0a69                	addi	s4,s4,26
 306:	0000                	unimp
 308:	0005                	c.nop	1
 30a:	1b3d                	addi	s6,s6,-17
 30c:	0000                	unimp
 30e:	0005                	c.nop	1
 310:	204e                	fld	ft0,208(sp)
 312:	0000                	unimp
 314:	0005                	c.nop	1
 316:	0000191b          	0x191b
 31a:	0005                	c.nop	1
 31c:	26fa                	fld	fa3,408(sp)
 31e:	0000                	unimp
 320:	0005                	c.nop	1
 322:	1e94                	addi	a3,sp,880
 324:	0000                	unimp
 326:	0005                	c.nop	1
 328:	01fe                	slli	gp,gp,0x1f
 32a:	0000                	unimp
 32c:	0005                	c.nop	1
 32e:	24c6                	fld	fs1,80(sp)
 330:	0000                	unimp
 332:	0005                	c.nop	1
 334:	229f 0000 0005      	0x50000229f
 33a:	00000f13          	li	t5,0
 33e:	0005                	c.nop	1
 340:	20d9                	jal	406 <__Vectors-0x3ffbfa>
 342:	0000                	unimp
 344:	0005                	c.nop	1
 346:	006c                	addi	a1,sp,12
 348:	0000                	unimp
 34a:	0005                	c.nop	1
 34c:	15d2                	slli	a1,a1,0x34
 34e:	0000                	unimp
 350:	0005                	c.nop	1
 352:	22ea                	fld	ft5,152(sp)
 354:	0000                	unimp
 356:	0005                	c.nop	1
 358:	0036                	c.slli	zero,0xd
 35a:	0000                	unimp
 35c:	0005                	c.nop	1
 35e:	097a                	slli	s2,s2,0x1e
 360:	0000                	unimp
 362:	0005                	c.nop	1
 364:	1f94                	addi	a3,sp,1008
 366:	0000                	unimp
 368:	0005                	c.nop	1
 36a:	0ce2                	slli	s9,s9,0x18
 36c:	0000                	unimp
 36e:	0005                	c.nop	1
 370:	099a                	slli	s3,s3,0x6
 372:	0000                	unimp
 374:	0005                	c.nop	1
 376:	0c3e                	slli	s8,s8,0xf
 378:	0000                	unimp
 37a:	0005                	c.nop	1
 37c:	1699                	addi	a3,a3,-26
 37e:	0000                	unimp
 380:	0005                	c.nop	1
 382:	1d02                	slli	s10,s10,0x20
 384:	0000                	unimp
 386:	0005                	c.nop	1
 388:	16d6                	slli	a3,a3,0x35
 38a:	0000                	unimp
 38c:	0005                	c.nop	1
 38e:	00001b07          	flh	fs6,0(zero) # 0 <__Vectors-0x400000>
 392:	0005                	c.nop	1
 394:	00000573          	0x573
 398:	0005                	c.nop	1
 39a:	0ea0                	addi	s0,sp,856
 39c:	0000                	unimp
 39e:	0005                	c.nop	1
 3a0:	01d6                	slli	gp,gp,0x15
 3a2:	0000                	unimp
 3a4:	0005                	c.nop	1
 3a6:	00001513          	slli	a0,zero,0x0
 3aa:	0005                	c.nop	1
 3ac:	0d3d                	addi	s10,s10,15
 3ae:	0000                	unimp
 3b0:	0005                	c.nop	1
 3b2:	0f7c                	addi	a5,sp,924
 3b4:	0000                	unimp
 3b6:	0005                	c.nop	1
 3b8:	24ad                	jal	622 <__Vectors-0x3ff9de>
 3ba:	0000                	unimp
 3bc:	0005                	c.nop	1
 3be:	11b1                	addi	gp,gp,-20
 3c0:	0000                	unimp
 3c2:	0005                	c.nop	1
 3c4:	0dac                	addi	a1,sp,728
 3c6:	0000                	unimp
 3c8:	0005                	c.nop	1
 3ca:	0000137b          	0x137b
 3ce:	0005                	c.nop	1
 3d0:	17d0                	addi	a2,sp,996
 3d2:	0000                	unimp
 3d4:	0005                	c.nop	1
 3d6:	1119                	addi	sp,sp,-26
 3d8:	0000                	unimp
 3da:	0005                	c.nop	1
 3dc:	0106                	slli	sp,sp,0x1
 3de:	0000                	unimp
 3e0:	0005                	c.nop	1
 3e2:	0b18                	addi	a4,sp,400
 3e4:	0000                	unimp
 3e6:	0005                	c.nop	1
 3e8:	0949                	addi	s2,s2,18
 3ea:	0000                	unimp
 3ec:	0005                	c.nop	1
 3ee:	1ec1                	addi	t4,t4,-16
 3f0:	0000                	unimp
 3f2:	0005                	c.nop	1
 3f4:	0f41                	addi	t5,t5,16
 3f6:	0000                	unimp
 3f8:	0005                	c.nop	1
 3fa:	06f9                	addi	a3,a3,30
 3fc:	0000                	unimp
 3fe:	0005                	c.nop	1
 400:	000012f7          	0x12f7
 404:	0005                	c.nop	1
 406:	0d94                	addi	a3,sp,720
 408:	0000                	unimp
 40a:	0005                	c.nop	1
 40c:	2725                	jal	b34 <__Vectors-0x3ff4cc>
 40e:	0000                	unimp
 410:	0005                	c.nop	1
 412:	1684                	addi	s1,sp,864
 414:	0000                	unimp
 416:	0005                	c.nop	1
 418:	0340                	addi	s0,sp,388
 41a:	0000                	unimp
 41c:	0005                	c.nop	1
 41e:	12e0                	addi	s0,sp,364
 420:	0000                	unimp
 422:	0005                	c.nop	1
 424:	0000242f          	amoadd.w	s0,zero,(zero)
 428:	0005                	c.nop	1
 42a:	0759                	addi	a4,a4,22
 42c:	0000                	unimp
 42e:	0005                	c.nop	1
 430:	000005eb          	0x5eb
 434:	0005                	c.nop	1
 436:	00000d4b          	fnmsub.s	fs10,ft0,ft0,ft0,rne
 43a:	0005                	c.nop	1
 43c:	11c5                	addi	gp,gp,-15
 43e:	0000                	unimp
 440:	0005                	c.nop	1
 442:	047c                	addi	a5,sp,524
 444:	0000                	unimp
 446:	0005                	c.nop	1
 448:	2495                	jal	6ac <__Vectors-0x3ff954>
 44a:	0000                	unimp
 44c:	0005                	c.nop	1
 44e:	00000447          	fmsub.s	fs0,ft0,ft0,ft0,rne
 452:	0005                	c.nop	1
 454:	045d                	addi	s0,s0,23
 456:	0000                	unimp
 458:	0005                	c.nop	1
 45a:	0d0c                	addi	a1,sp,656
 45c:	0000                	unimp
 45e:	0005                	c.nop	1
 460:	07d8                	addi	a4,sp,964
 462:	0000                	unimp
 464:	0005                	c.nop	1
 466:	091a                	slli	s2,s2,0x6
 468:	0000                	unimp
 46a:	0005                	c.nop	1
 46c:	028c                	addi	a1,sp,320
 46e:	0000                	unimp
 470:	0005                	c.nop	1
 472:	1cba                	slli	s9,s9,0x2e
 474:	0000                	unimp
 476:	0005                	c.nop	1
 478:	211f 0000 0005      	0x50000211f
 47e:	08e0                	addi	s0,sp,92
 480:	0000                	unimp
 482:	0005                	c.nop	1
 484:	00000393          	li	t2,0
 488:	0005                	c.nop	1
 48a:	1fc6                	slli	t6,t6,0x31
 48c:	0000                	unimp
 48e:	0005                	c.nop	1
 490:	0b56                	slli	s6,s6,0x15
 492:	0000                	unimp
 494:	0005                	c.nop	1
 496:	2038                	fld	fa4,64(s0)
 498:	0000                	unimp
 49a:	0005                	c.nop	1
 49c:	0931                	addi	s2,s2,12
 49e:	0000                	unimp
 4a0:	0005                	c.nop	1
 4a2:	1df6                	slli	s11,s11,0x3d
 4a4:	0000                	unimp
 4a6:	0005                	c.nop	1
 4a8:	00000f2b          	0xf2b
 4ac:	0005                	c.nop	1
 4ae:	0084                	addi	s1,sp,64
 4b0:	0000                	unimp
 4b2:	0005                	c.nop	1
 4b4:	25ac                	fld	fa1,72(a1)
 4b6:	0000                	unimp
 4b8:	0005                	c.nop	1
 4ba:	12c5                	addi	t0,t0,-15
 4bc:	0000                	unimp
 4be:	0005                	c.nop	1
 4c0:	0bfd                	addi	s7,s7,31
 4c2:	0000                	unimp
 4c4:	0005                	c.nop	1
 4c6:	1a46                	slli	s4,s4,0x31
 4c8:	0000                	unimp
 4ca:	0005                	c.nop	1
 4cc:	1759                	addi	a4,a4,-10
 4ce:	0000                	unimp
 4d0:	0005                	c.nop	1
 4d2:	1ab1                	addi	s5,s5,-20
 4d4:	0000                	unimp
 4d6:	0005                	c.nop	1
 4d8:	0e08                	addi	a0,sp,784
 4da:	0000                	unimp
 4dc:	0005                	c.nop	1
 4de:	0c64                	addi	s1,sp,540
 4e0:	0000                	unimp
 4e2:	0005                	c.nop	1
 4e4:	2372                	fld	ft6,280(sp)
 4e6:	0000                	unimp
 4e8:	0005                	c.nop	1
 4ea:	1e7d                	addi	t3,t3,-1
 4ec:	0000                	unimp
 4ee:	0005                	c.nop	1
 4f0:	0e68                	addi	a0,sp,796
 4f2:	0000                	unimp
 4f4:	0005                	c.nop	1
 4f6:	21b2                	fld	ft3,264(sp)
 4f8:	0000                	unimp
 4fa:	0005                	c.nop	1
 4fc:	00001eab          	0x1eab
 500:	0005                	c.nop	1
 502:	23d6                	fld	ft7,336(sp)
 504:	0000                	unimp
 506:	0005                	c.nop	1
 508:	0000276f          	jal	a4,2508 <__Vectors-0x3fdaf8>
 50c:	0005                	c.nop	1
 50e:	1895                	addi	a7,a7,-27
 510:	0000                	unimp
 512:	0005                	c.nop	1
 514:	00000c27          	vsb.v	v24,(zero),v0.t
 518:	0005                	c.nop	1
 51a:	2756                	fld	fa4,336(sp)
 51c:	0000                	unimp
 51e:	0005                	c.nop	1
 520:	1ed8                	addi	a4,sp,884
 522:	0000                	unimp
 524:	0005                	c.nop	1
 526:	02f0                	addi	a2,sp,332
 528:	0000                	unimp
 52a:	0005                	c.nop	1
 52c:	00000357          	vadd.vv	v6,v0,v0,v0.t
 530:	0005                	c.nop	1
 532:	0594                	addi	a3,sp,704
 534:	0000                	unimp
 536:	0005                	c.nop	1
 538:	1f08                	addi	a0,sp,944
 53a:	0000                	unimp
 53c:	0005                	c.nop	1
 53e:	0055                	c.nop	21
 540:	0000                	unimp
 542:	0005                	c.nop	1
 544:	0000116f          	jal	sp,1544 <__Vectors-0x3feabc>
 548:	0005                	c.nop	1
 54a:	069c                	addi	a5,sp,832
 54c:	0000                	unimp
 54e:	0005                	c.nop	1
 550:	00001e47          	fmsub.s	ft8,ft0,ft0,ft0,rtz
 554:	0005                	c.nop	1
 556:	0000261b          	0x261b
 55a:	0005                	c.nop	1
 55c:	095e                	slli	s2,s2,0x17
 55e:	0000                	unimp
 560:	0005                	c.nop	1
 562:	1220                	addi	s0,sp,296
 564:	0000                	unimp
 566:	0005                	c.nop	1
 568:	0000148b          	addsl	s1,zero,zero,0
 56c:	0005                	c.nop	1
 56e:	25c5                	jal	c4e <__Vectors-0x3ff3b2>
 570:	0000                	unimp
 572:	0005                	c.nop	1
 574:	000019e7          	0x19e7
 578:	0005                	c.nop	1
 57a:	2212                	fld	ft4,256(sp)
 57c:	0000                	unimp
 57e:	0005                	c.nop	1
 580:	0000231b          	0x231b
 584:	0005                	c.nop	1
 586:	00c5                	addi	ra,ra,17
 588:	0000                	unimp
 58a:	0005                	c.nop	1
 58c:	1be1                	addi	s7,s7,-8
 58e:	0000                	unimp
 590:	0005                	c.nop	1
 592:	1255                	addi	tp,tp,-11
 594:	0000                	unimp
 596:	0005                	c.nop	1
 598:	0ef9                	addi	t4,t4,30
 59a:	0000                	unimp
 59c:	0005                	c.nop	1
 59e:	198a                	slli	s3,s3,0x22
 5a0:	0000                	unimp
 5a2:	0005                	c.nop	1
 5a4:	15fa                	slli	a1,a1,0x3e
 5a6:	0000                	unimp
 5a8:	0005                	c.nop	1
 5aa:	1a5e                	slli	s4,s4,0x37
 5ac:	0000                	unimp
 5ae:	0005                	c.nop	1
 5b0:	2688                	fld	fa0,8(a3)
 5b2:	0000                	unimp
 5b4:	0005                	c.nop	1
 5b6:	04ac                	addi	a1,sp,584
 5b8:	0000                	unimp
 5ba:	0005                	c.nop	1
 5bc:	0274                	addi	a3,sp,268
 5be:	0000                	unimp
 5c0:	0005                	c.nop	1
 5c2:	0000140f          	0x140f
 5c6:	0005                	c.nop	1
 5c8:	181c                	addi	a5,sp,48
 5ca:	0000                	unimp
 5cc:	0005                	c.nop	1
 5ce:	16ee                	slli	a3,a3,0x3b
 5d0:	0000                	unimp
 5d2:	0005                	c.nop	1
 5d4:	0fb4                	addi	a3,sp,984
 5d6:	0000                	unimp
 5d8:	0005                	c.nop	1
 5da:	0508                	addi	a0,sp,640
 5dc:	0000                	unimp
 5de:	0005                	c.nop	1
 5e0:	1d75                	addi	s10,s10,-3
 5e2:	0000                	unimp
 5e4:	0005                	c.nop	1
 5e6:	00001a83          	lh	s5,0(zero) # 0 <__Vectors-0x400000>
 5ea:	0005                	c.nop	1
 5ec:	1e2d                	addi	t3,t3,-21
 5ee:	0000                	unimp
 5f0:	0005                	c.nop	1
 5f2:	0ff2                	slli	t6,t6,0x1c
 5f4:	0000                	unimp
 5f6:	0005                	c.nop	1
 5f8:	1dba                	slli	s11,s11,0x2e
 5fa:	0000                	unimp
 5fc:	0005                	c.nop	1
 5fe:	2471                	jal	88a <__Vectors-0x3ff776>
 600:	0000                	unimp
 602:	0005                	c.nop	1
 604:	2196                	fld	ft3,320(sp)
 606:	0000                	unimp
 608:	0005                	c.nop	1
 60a:	0630                	addi	a2,sp,776
 60c:	0000                	unimp
 60e:	0005                	c.nop	1
 610:	00002593          	slti	a1,zero,0
 614:	0005                	c.nop	1
 616:	216c                	fld	fa1,192(a0)
 618:	0000                	unimp
 61a:	0005                	c.nop	1
 61c:	064e                	slli	a2,a2,0x13
 61e:	0000                	unimp
 620:	0005                	c.nop	1
 622:	000014c3          	fmadd.s	fs1,ft0,ft0,ft0,rtz
 626:	0005                	c.nop	1
 628:	0408                	addi	a0,sp,512
 62a:	0000                	unimp
 62c:	0005                	c.nop	1
 62e:	2098                	fld	fa4,0(s1)
 630:	0000                	unimp
 632:	0005                	c.nop	1
 634:	11da                	slli	gp,gp,0x36
 636:	0000                	unimp
 638:	0005                	c.nop	1
 63a:	0549                	addi	a0,a0,18
 63c:	0000                	unimp
 63e:	0005                	c.nop	1
 640:	00001197          	auipc	gp,0x1
 644:	0005                	c.nop	1
 646:	00001ddb          	0x1ddb
 64a:	0005                	c.nop	1
 64c:	1ced                	addi	s9,s9,-5
 64e:	0000                	unimp
 650:	0005                	c.nop	1
 652:	184a                	slli	a6,a6,0x32
 654:	0000                	unimp
 656:	0005                	c.nop	1
 658:	0806                	slli	a6,a6,0x1
 65a:	0000                	unimp
 65c:	0005                	c.nop	1
 65e:	02a5                	addi	t0,t0,9
 660:	0000                	unimp
 662:	0005                	c.nop	1
 664:	0eb6                	slli	t4,t4,0xd
 666:	0000                	unimp
 668:	0005                	c.nop	1
 66a:	2302                	fld	ft6,0(sp)
 66c:	0000                	unimp
 66e:	0005                	c.nop	1
 670:	21cc                	fld	fa1,128(a1)
 672:	0000                	unimp
 674:	0005                	c.nop	1
 676:	01c0                	addi	s0,sp,196
 678:	0000                	unimp
 67a:	0005                	c.nop	1
 67c:	19bc                	addi	a5,sp,248
 67e:	0000                	unimp
 680:	0005                	c.nop	1
 682:	0850                	addi	a2,sp,20
 684:	0000                	unimp
 686:	0005                	c.nop	1
 688:	2251                	jal	80c <__Vectors-0x3ff7f4>
 68a:	0000                	unimp
 68c:	0005                	c.nop	1
 68e:	15ac                	addi	a1,sp,744
 690:	0000                	unimp
 692:	0005                	c.nop	1
 694:	0000173f 06b60005 	0x6b600050000173f
 69c:	0000                	unimp
 69e:	0005                	c.nop	1
 6a0:	19a5                	addi	s3,s3,-23
 6a2:	0000                	unimp
 6a4:	0005                	c.nop	1
 6a6:	01a5                	addi	gp,gp,9
 6a8:	0000                	unimp
 6aa:	0005                	c.nop	1
 6ac:	1429                	addi	s0,s0,-22
 6ae:	0000                	unimp
 6b0:	0005                	c.nop	1
 6b2:	000013b3          	sll	t2,zero,zero
 6b6:	0005                	c.nop	1
 6b8:	18b1                	addi	a7,a7,-20
 6ba:	0000                	unimp
 6bc:	0005                	c.nop	1
 6be:	179e                	slli	a5,a5,0x27
 6c0:	0000                	unimp
 6c2:	0005                	c.nop	1
 6c4:	1d12                	slli	s10,s10,0x24
 6c6:	0000                	unimp
 6c8:	0005                	c.nop	1
 6ca:	000020f7          	0x20f7
 6ce:	0005                	c.nop	1
 6d0:	257c                	fld	fa5,200(a0)
 6d2:	0000                	unimp
 6d4:	0005                	c.nop	1
 6d6:	0000273f 153b0005 	0x153b00050000273f
 6de:	0000                	unimp
 6e0:	0005                	c.nop	1
 6e2:	26dc                	fld	fa5,136(a3)
 6e4:	0000                	unimp
 6e6:	0005                	c.nop	1
 6e8:	1068                	addi	a0,sp,44
 6ea:	0000                	unimp
 6ec:	0005                	c.nop	1
 6ee:	1a24                	addi	s1,sp,312
 6f0:	0000                	unimp
 6f2:	0005                	c.nop	1
 6f4:	000002bb          	0x2bb
 6f8:	0005                	c.nop	1
 6fa:	0866                	slli	a6,a6,0x19
 6fc:	0000                	unimp
 6fe:	0005                	c.nop	1
 700:	1571                	addi	a0,a0,-4
 702:	0000                	unimp
 704:	0005                	c.nop	1
 706:	10e9                	addi	ra,ra,-6
 708:	0000                	unimp
 70a:	0005                	c.nop	1
 70c:	23f1                	jal	cd8 <__Vectors-0x3ff328>
 70e:	0000                	unimp
 710:	0005                	c.nop	1
 712:	0a1d                	addi	s4,s4,7
 714:	0000                	unimp
 716:	0005                	c.nop	1
 718:	08bc                	addi	a5,sp,88
 71a:	0000                	unimp
 71c:	0005                	c.nop	1
 71e:	000026a3          	sw	zero,13(zero) # d <__Vectors-0x3ffff3>
 722:	0005                	c.nop	1
 724:	0be1                	addi	s7,s7,24
 726:	0000                	unimp
 728:	0005                	c.nop	1
 72a:	00000887          	vlbu.v	v17,(zero),v0.t
 72e:	0005                	c.nop	1
 730:	00001807          	flh	fa6,0(zero) # 0 <__Vectors-0x400000>
 734:	0005                	c.nop	1
 736:	032c                	addi	a1,sp,392
 738:	0000                	unimp
 73a:	0005                	c.nop	1
 73c:	17b9                	addi	a5,a5,-18
 73e:	0000                	unimp
 740:	0005                	c.nop	1
 742:	000023e7          	0x23e7
 746:	0005                	c.nop	1
 748:	1476                	slli	s0,s0,0x3d
 74a:	0000                	unimp
 74c:	0005                	c.nop	1
 74e:	000018eb          	0x18eb
 752:	0005                	c.nop	1
 754:	1884                	addi	s1,sp,112
 756:	0000                	unimp
 758:	0005                	c.nop	1
 75a:	1a70                	addi	a2,sp,316
 75c:	0000                	unimp
 75e:	0005                	c.nop	1
 760:	00002527          	fsw	ft0,10(zero) # a <__Vectors-0x3ffff6>
 764:	0005                	c.nop	1
 766:	0000104f          	fnmadd.s	ft0,ft0,ft0,ft0,rtz
 76a:	0005                	c.nop	1
 76c:	000005d3          	fadd.s	fa1,ft0,ft0,rne
 770:	0005                	c.nop	1
 772:	00000bab          	0xbab
 776:	0400                	addi	s0,sp,512
 778:	0000                	unimp
 77a:	0205                	addi	tp,tp,1
 77c:	0e92                	slli	t4,t4,0x4
 77e:	0000                	unimp
 780:	1705                	addi	a4,a4,-31
 782:	1348                	addi	a0,sp,420
 784:	0000                	unimp
 786:	0400                	addi	s0,sp,512
 788:	0000                	unimp
 78a:	0605                	addi	a2,a2,1
 78c:	00001f4b          	fnmsub.s	ft10,ft0,ft0,ft0,rtz
 790:	0705                	addi	a4,a4,1
 792:	04c9                	addi	s1,s1,18
 794:	0000                	unimp
 796:	0805                	addi	a6,a6,1
 798:	0000240f          	0x240f
 79c:	0905                	addi	s2,s2,1
 79e:	1306                	slli	t1,t1,0x21
 7a0:	0000                	unimp
 7a2:	0a05                	addi	s4,s4,1
 7a4:	0000227f          	radd32	tp,zero,zero
 7a8:	0b05                	addi	s6,s6,1
 7aa:	100d                	c.nop	-29
 7ac:	0000                	unimp
 7ae:	0c05                	addi	s8,s8,1
 7b0:	1611                	addi	a2,a2,-28
 7b2:	0000                	unimp
 7b4:	0d05                	addi	s10,s10,1
 7b6:	1b94                	addi	a3,sp,496
 7b8:	0000                	unimp
 7ba:	1305                	addi	t1,t1,-31
 7bc:	1b61                	addi	s6,s6,-8
 7be:	0000                	unimp
 7c0:	1405                	addi	s0,s0,-31
 7c2:	0a85                	addi	s5,s5,1
 7c4:	0000                	unimp
 7c6:	1605                	addi	a2,a2,-31
 7c8:	14a4                	addi	s1,sp,616
 7ca:	0000                	unimp
 7cc:	1705                	addi	a4,a4,-31
 7ce:	000021f3          	csrr	gp,ustatus
 7d2:	1805                	addi	a6,a6,-31
 7d4:	070d                	addi	a4,a4,3
 7d6:	0000                	unimp
 7d8:	1905                	addi	s2,s2,-31
 7da:	1150                	addi	a2,sp,164
 7dc:	0000                	unimp
 7de:	1a05                	addi	s4,s4,-31
 7e0:	1931                	addi	s2,s2,-20
 7e2:	0000                	unimp
 7e4:	1b05                	addi	s6,s6,-31
 7e6:	1456                	slli	s0,s0,0x35
 7e8:	0000                	unimp
 7ea:	1c05                	addi	s8,s8,-31
 7ec:	00000f93          	li	t6,0
 7f0:	1d05                	addi	s10,s10,-31
 7f2:	16b5                	addi	a3,a3,-19
 7f4:	0000                	unimp
 7f6:	1e05                	addi	t3,t3,-31
 7f8:	00001d57          	vfadd.vv	v26,v0,v0,v0.t
	...
