
top_test.elf:     file format elf32-littleriscv


Disassembly of section .text:

00400000 <__Vectors>:
  400000:	0110                	addi	a2,sp,128
  400002:	0040                	addi	s0,sp,4
  400004:	0110                	addi	a2,sp,128
  400006:	0040                	addi	s0,sp,4
  400008:	0110                	addi	a2,sp,128
  40000a:	0040                	addi	s0,sp,4
  40000c:	0110                	addi	a2,sp,128
  40000e:	0040                	addi	s0,sp,4
  400010:	0110                	addi	a2,sp,128
  400012:	0040                	addi	s0,sp,4
  400014:	0110                	addi	a2,sp,128
  400016:	0040                	addi	s0,sp,4
  400018:	0110                	addi	a2,sp,128
  40001a:	0040                	addi	s0,sp,4
  40001c:	0110                	addi	a2,sp,128
  40001e:	0040                	addi	s0,sp,4
  400020:	0110                	addi	a2,sp,128
  400022:	0040                	addi	s0,sp,4
  400024:	0110                	addi	a2,sp,128
  400026:	0040                	addi	s0,sp,4
  400028:	0110                	addi	a2,sp,128
  40002a:	0040                	addi	s0,sp,4
  40002c:	0110                	addi	a2,sp,128
  40002e:	0040                	addi	s0,sp,4
  400030:	0110                	addi	a2,sp,128
  400032:	0040                	addi	s0,sp,4
  400034:	0110                	addi	a2,sp,128
  400036:	0040                	addi	s0,sp,4
  400038:	0110                	addi	a2,sp,128
  40003a:	0040                	addi	s0,sp,4
  40003c:	0110                	addi	a2,sp,128
  40003e:	0040                	addi	s0,sp,4
  400040:	0110                	addi	a2,sp,128
  400042:	0040                	addi	s0,sp,4
  400044:	0110                	addi	a2,sp,128
  400046:	0040                	addi	s0,sp,4
  400048:	0110                	addi	a2,sp,128
  40004a:	0040                	addi	s0,sp,4
  40004c:	0110                	addi	a2,sp,128
  40004e:	0040                	addi	s0,sp,4
  400050:	0110                	addi	a2,sp,128
  400052:	0040                	addi	s0,sp,4
  400054:	0110                	addi	a2,sp,128
  400056:	0040                	addi	s0,sp,4
  400058:	0110                	addi	a2,sp,128
  40005a:	0040                	addi	s0,sp,4
  40005c:	0110                	addi	a2,sp,128
  40005e:	0040                	addi	s0,sp,4
  400060:	0110                	addi	a2,sp,128
  400062:	0040                	addi	s0,sp,4
  400064:	0110                	addi	a2,sp,128
  400066:	0040                	addi	s0,sp,4
  400068:	0110                	addi	a2,sp,128
  40006a:	0040                	addi	s0,sp,4
  40006c:	0110                	addi	a2,sp,128
  40006e:	0040                	addi	s0,sp,4
  400070:	0110                	addi	a2,sp,128
  400072:	0040                	addi	s0,sp,4
  400074:	0110                	addi	a2,sp,128
  400076:	0040                	addi	s0,sp,4
  400078:	0110                	addi	a2,sp,128
  40007a:	0040                	addi	s0,sp,4
  40007c:	0110                	addi	a2,sp,128
  40007e:	0040                	addi	s0,sp,4
  400080:	0110                	addi	a2,sp,128
  400082:	0040                	addi	s0,sp,4
  400084:	0110                	addi	a2,sp,128
  400086:	0040                	addi	s0,sp,4
  400088:	0110                	addi	a2,sp,128
  40008a:	0040                	addi	s0,sp,4
  40008c:	0110                	addi	a2,sp,128
  40008e:	0040                	addi	s0,sp,4
  400090:	0110                	addi	a2,sp,128
  400092:	0040                	addi	s0,sp,4
  400094:	0110                	addi	a2,sp,128
  400096:	0040                	addi	s0,sp,4
  400098:	0110                	addi	a2,sp,128
  40009a:	0040                	addi	s0,sp,4
  40009c:	0110                	addi	a2,sp,128
  40009e:	0040                	addi	s0,sp,4
  4000a0:	0110                	addi	a2,sp,128
  4000a2:	0040                	addi	s0,sp,4
  4000a4:	0110                	addi	a2,sp,128
  4000a6:	0040                	addi	s0,sp,4
  4000a8:	0110                	addi	a2,sp,128
  4000aa:	0040                	addi	s0,sp,4
  4000ac:	0110                	addi	a2,sp,128
  4000ae:	0040                	addi	s0,sp,4
  4000b0:	0110                	addi	a2,sp,128
  4000b2:	0040                	addi	s0,sp,4
  4000b4:	0110                	addi	a2,sp,128
  4000b6:	0040                	addi	s0,sp,4
  4000b8:	0110                	addi	a2,sp,128
  4000ba:	0040                	addi	s0,sp,4
  4000bc:	0110                	addi	a2,sp,128
  4000be:	0040                	addi	s0,sp,4

004000c0 <main>:
  4000c0:	1f0007b7          	lui	a5,0x1f000
  4000c4:	4398                	lw	a4,0(a5)
  4000c6:	004006b7          	lui	a3,0x400
  4000ca:	12e6a023          	sw	a4,288(a3) # 400120 <__etext>
  4000ce:	0ce7a023          	sw	a4,192(a5) # 1f0000c0 <__end+0x1ebffe90>
  4000d2:	a001                	j	4000d2 <main+0x12>

004000d4 <Reset_Handler>:
  4000d4:	62f9                	lui	t0,0x1e
  4000d6:	3002a073          	csrs	mstatus,t0
  4000da:	004002b7          	lui	t0,0x400
  4000de:	7c02a073          	csrs	mxstatus,t0
  4000e2:	00000517          	auipc	a0,0x0
  4000e6:	02e50513          	addi	a0,a0,46 # 400110 <Default_Handler>
  4000ea:	00356513          	ori	a0,a0,3
  4000ee:	30551073          	csrw	mtvec,a0
  4000f2:	00000517          	auipc	a0,0x0
  4000f6:	f0e50513          	addi	a0,a0,-242 # 400000 <__Vectors>
  4000fa:	30751073          	csrw	mtvt,a0
  4000fe:	00000117          	auipc	sp,0x0
  400102:	13210113          	addi	sp,sp,306 # 400230 <__end>
  400106:	34011073          	csrw	mscratch,sp
  40010a:	fb7ff0ef          	jal	ra,4000c0 <main>

0040010e <__exit>:
  40010e:	a001                	j	40010e <__exit>

00400110 <Default_Handler>:
  400110:	a001                	j	400110 <Default_Handler>
	...
